
kernel.bin:     file format elf32-i386


Disassembly of section .text:

00001000 <_start>:
    1000:	bc 40 42 01 00       	mov    $0x14240,%esp
    1005:	c7 05 68 ed 04 00 00 	movl   $0x0,0x4ed68
    100c:	00 00 00 
    100f:	0f 01 05 d4 01 05 00 	sgdtl  0x501d4
    1016:	e8 79 04 00 00       	call   1494 <cstart>
    101b:	0f 01 15 d4 01 05 00 	lgdtl  0x501d4
    1022:	0f 01 1d 64 4b 01 00 	lidtl  0x14b64
    1029:	ea 30 10 00 00 08 00 	ljmp   $0x8,$0x1030

00001030 <csinit>:
    1030:	31 c0                	xor    %eax,%eax
    1032:	66 b8 20 00          	mov    $0x20,%ax
    1036:	0f 00 d8             	ltr    %ax
    1039:	e9 da 04 00 00       	jmp    1518 <kernel_main>
    103e:	90                   	nop
    103f:	90                   	nop

00001040 <hwint00>:
    1040:	e8 c6 03 00 00       	call   140b <save>
    1045:	e4 21                	in     $0x21,%al
    1047:	0c 01                	or     $0x1,%al
    1049:	e6 21                	out    %al,$0x21
    104b:	b0 20                	mov    $0x20,%al
    104d:	e6 20                	out    %al,$0x20
    104f:	fb                   	sti    
    1050:	68 00 00 00 00       	push   $0x0
    1055:	ff 15 80 0c 05 00    	call   *0x50c80
    105b:	59                   	pop    %ecx
    105c:	fa                   	cli    
    105d:	e4 21                	in     $0x21,%al
    105f:	24 fe                	and    $0xfe,%al
    1061:	e6 21                	out    %al,$0x21
    1063:	c3                   	ret    
    1064:	90                   	nop
    1065:	90                   	nop
    1066:	90                   	nop
    1067:	90                   	nop
    1068:	90                   	nop
    1069:	90                   	nop
    106a:	90                   	nop
    106b:	90                   	nop
    106c:	90                   	nop
    106d:	90                   	nop
    106e:	90                   	nop
    106f:	90                   	nop

00001070 <hwint01>:
    1070:	e8 96 03 00 00       	call   140b <save>
    1075:	e4 21                	in     $0x21,%al
    1077:	0c 02                	or     $0x2,%al
    1079:	e6 21                	out    %al,$0x21
    107b:	b0 20                	mov    $0x20,%al
    107d:	e6 20                	out    %al,$0x20
    107f:	fb                   	sti    
    1080:	68 01 00 00 00       	push   $0x1
    1085:	ff 15 84 0c 05 00    	call   *0x50c84
    108b:	59                   	pop    %ecx
    108c:	fa                   	cli    
    108d:	e4 21                	in     $0x21,%al
    108f:	24 fd                	and    $0xfd,%al
    1091:	e6 21                	out    %al,$0x21
    1093:	c3                   	ret    
    1094:	90                   	nop
    1095:	90                   	nop
    1096:	90                   	nop
    1097:	90                   	nop
    1098:	90                   	nop
    1099:	90                   	nop
    109a:	90                   	nop
    109b:	90                   	nop
    109c:	90                   	nop
    109d:	90                   	nop
    109e:	90                   	nop
    109f:	90                   	nop

000010a0 <hwint02>:
    10a0:	e8 66 03 00 00       	call   140b <save>
    10a5:	e4 21                	in     $0x21,%al
    10a7:	0c 04                	or     $0x4,%al
    10a9:	e6 21                	out    %al,$0x21
    10ab:	b0 20                	mov    $0x20,%al
    10ad:	e6 20                	out    %al,$0x20
    10af:	fb                   	sti    
    10b0:	68 02 00 00 00       	push   $0x2
    10b5:	ff 15 88 0c 05 00    	call   *0x50c88
    10bb:	59                   	pop    %ecx
    10bc:	fa                   	cli    
    10bd:	e4 21                	in     $0x21,%al
    10bf:	24 fb                	and    $0xfb,%al
    10c1:	e6 21                	out    %al,$0x21
    10c3:	c3                   	ret    
    10c4:	90                   	nop
    10c5:	90                   	nop
    10c6:	90                   	nop
    10c7:	90                   	nop
    10c8:	90                   	nop
    10c9:	90                   	nop
    10ca:	90                   	nop
    10cb:	90                   	nop
    10cc:	90                   	nop
    10cd:	90                   	nop
    10ce:	90                   	nop
    10cf:	90                   	nop

000010d0 <hwint03>:
    10d0:	e8 36 03 00 00       	call   140b <save>
    10d5:	e4 21                	in     $0x21,%al
    10d7:	0c 08                	or     $0x8,%al
    10d9:	e6 21                	out    %al,$0x21
    10db:	b0 20                	mov    $0x20,%al
    10dd:	e6 20                	out    %al,$0x20
    10df:	fb                   	sti    
    10e0:	68 03 00 00 00       	push   $0x3
    10e5:	ff 15 8c 0c 05 00    	call   *0x50c8c
    10eb:	59                   	pop    %ecx
    10ec:	fa                   	cli    
    10ed:	e4 21                	in     $0x21,%al
    10ef:	24 f7                	and    $0xf7,%al
    10f1:	e6 21                	out    %al,$0x21
    10f3:	c3                   	ret    
    10f4:	90                   	nop
    10f5:	90                   	nop
    10f6:	90                   	nop
    10f7:	90                   	nop
    10f8:	90                   	nop
    10f9:	90                   	nop
    10fa:	90                   	nop
    10fb:	90                   	nop
    10fc:	90                   	nop
    10fd:	90                   	nop
    10fe:	90                   	nop
    10ff:	90                   	nop

00001100 <hwint04>:
    1100:	e8 06 03 00 00       	call   140b <save>
    1105:	e4 21                	in     $0x21,%al
    1107:	0c 10                	or     $0x10,%al
    1109:	e6 21                	out    %al,$0x21
    110b:	b0 20                	mov    $0x20,%al
    110d:	e6 20                	out    %al,$0x20
    110f:	fb                   	sti    
    1110:	68 04 00 00 00       	push   $0x4
    1115:	ff 15 90 0c 05 00    	call   *0x50c90
    111b:	59                   	pop    %ecx
    111c:	fa                   	cli    
    111d:	e4 21                	in     $0x21,%al
    111f:	24 ef                	and    $0xef,%al
    1121:	e6 21                	out    %al,$0x21
    1123:	c3                   	ret    
    1124:	90                   	nop
    1125:	90                   	nop
    1126:	90                   	nop
    1127:	90                   	nop
    1128:	90                   	nop
    1129:	90                   	nop
    112a:	90                   	nop
    112b:	90                   	nop
    112c:	90                   	nop
    112d:	90                   	nop
    112e:	90                   	nop
    112f:	90                   	nop

00001130 <hwint05>:
    1130:	e8 d6 02 00 00       	call   140b <save>
    1135:	e4 21                	in     $0x21,%al
    1137:	0c 20                	or     $0x20,%al
    1139:	e6 21                	out    %al,$0x21
    113b:	b0 20                	mov    $0x20,%al
    113d:	e6 20                	out    %al,$0x20
    113f:	fb                   	sti    
    1140:	68 05 00 00 00       	push   $0x5
    1145:	ff 15 94 0c 05 00    	call   *0x50c94
    114b:	59                   	pop    %ecx
    114c:	fa                   	cli    
    114d:	e4 21                	in     $0x21,%al
    114f:	24 df                	and    $0xdf,%al
    1151:	e6 21                	out    %al,$0x21
    1153:	c3                   	ret    
    1154:	90                   	nop
    1155:	90                   	nop
    1156:	90                   	nop
    1157:	90                   	nop
    1158:	90                   	nop
    1159:	90                   	nop
    115a:	90                   	nop
    115b:	90                   	nop
    115c:	90                   	nop
    115d:	90                   	nop
    115e:	90                   	nop
    115f:	90                   	nop

00001160 <hwint06>:
    1160:	e8 a6 02 00 00       	call   140b <save>
    1165:	e4 21                	in     $0x21,%al
    1167:	0c 40                	or     $0x40,%al
    1169:	e6 21                	out    %al,$0x21
    116b:	b0 20                	mov    $0x20,%al
    116d:	e6 20                	out    %al,$0x20
    116f:	fb                   	sti    
    1170:	68 06 00 00 00       	push   $0x6
    1175:	ff 15 98 0c 05 00    	call   *0x50c98
    117b:	59                   	pop    %ecx
    117c:	fa                   	cli    
    117d:	e4 21                	in     $0x21,%al
    117f:	24 bf                	and    $0xbf,%al
    1181:	e6 21                	out    %al,$0x21
    1183:	c3                   	ret    
    1184:	90                   	nop
    1185:	90                   	nop
    1186:	90                   	nop
    1187:	90                   	nop
    1188:	90                   	nop
    1189:	90                   	nop
    118a:	90                   	nop
    118b:	90                   	nop
    118c:	90                   	nop
    118d:	90                   	nop
    118e:	90                   	nop
    118f:	90                   	nop

00001190 <hwint07>:
    1190:	e8 76 02 00 00       	call   140b <save>
    1195:	e4 21                	in     $0x21,%al
    1197:	0c 80                	or     $0x80,%al
    1199:	e6 21                	out    %al,$0x21
    119b:	b0 20                	mov    $0x20,%al
    119d:	e6 20                	out    %al,$0x20
    119f:	fb                   	sti    
    11a0:	68 07 00 00 00       	push   $0x7
    11a5:	ff 15 9c 0c 05 00    	call   *0x50c9c
    11ab:	59                   	pop    %ecx
    11ac:	fa                   	cli    
    11ad:	e4 21                	in     $0x21,%al
    11af:	24 7f                	and    $0x7f,%al
    11b1:	e6 21                	out    %al,$0x21
    11b3:	c3                   	ret    
    11b4:	90                   	nop
    11b5:	90                   	nop
    11b6:	90                   	nop
    11b7:	90                   	nop
    11b8:	90                   	nop
    11b9:	90                   	nop
    11ba:	90                   	nop
    11bb:	90                   	nop
    11bc:	90                   	nop
    11bd:	90                   	nop
    11be:	90                   	nop
    11bf:	90                   	nop

000011c0 <hwint08>:
    11c0:	e8 46 02 00 00       	call   140b <save>
    11c5:	e4 a1                	in     $0xa1,%al
    11c7:	0c 01                	or     $0x1,%al
    11c9:	e6 a1                	out    %al,$0xa1
    11cb:	b0 20                	mov    $0x20,%al
    11cd:	e6 20                	out    %al,$0x20
    11cf:	90                   	nop
    11d0:	e6 a0                	out    %al,$0xa0
    11d2:	fb                   	sti    
    11d3:	68 08 00 00 00       	push   $0x8
    11d8:	ff 15 a0 0c 05 00    	call   *0x50ca0
    11de:	59                   	pop    %ecx
    11df:	fa                   	cli    
    11e0:	e4 a1                	in     $0xa1,%al
    11e2:	24 fe                	and    $0xfe,%al
    11e4:	e6 a1                	out    %al,$0xa1
    11e6:	c3                   	ret    
    11e7:	90                   	nop
    11e8:	90                   	nop
    11e9:	90                   	nop
    11ea:	90                   	nop
    11eb:	90                   	nop
    11ec:	90                   	nop
    11ed:	90                   	nop
    11ee:	90                   	nop
    11ef:	90                   	nop

000011f0 <hwint09>:
    11f0:	e8 16 02 00 00       	call   140b <save>
    11f5:	e4 a1                	in     $0xa1,%al
    11f7:	0c 02                	or     $0x2,%al
    11f9:	e6 a1                	out    %al,$0xa1
    11fb:	b0 20                	mov    $0x20,%al
    11fd:	e6 20                	out    %al,$0x20
    11ff:	90                   	nop
    1200:	e6 a0                	out    %al,$0xa0
    1202:	fb                   	sti    
    1203:	68 09 00 00 00       	push   $0x9
    1208:	ff 15 a4 0c 05 00    	call   *0x50ca4
    120e:	59                   	pop    %ecx
    120f:	fa                   	cli    
    1210:	e4 a1                	in     $0xa1,%al
    1212:	24 fd                	and    $0xfd,%al
    1214:	e6 a1                	out    %al,$0xa1
    1216:	c3                   	ret    
    1217:	90                   	nop
    1218:	90                   	nop
    1219:	90                   	nop
    121a:	90                   	nop
    121b:	90                   	nop
    121c:	90                   	nop
    121d:	90                   	nop
    121e:	90                   	nop
    121f:	90                   	nop

00001220 <hwint10>:
    1220:	e8 e6 01 00 00       	call   140b <save>
    1225:	e4 a1                	in     $0xa1,%al
    1227:	0c 04                	or     $0x4,%al
    1229:	e6 a1                	out    %al,$0xa1
    122b:	b0 20                	mov    $0x20,%al
    122d:	e6 20                	out    %al,$0x20
    122f:	90                   	nop
    1230:	e6 a0                	out    %al,$0xa0
    1232:	fb                   	sti    
    1233:	68 0a 00 00 00       	push   $0xa
    1238:	ff 15 a8 0c 05 00    	call   *0x50ca8
    123e:	59                   	pop    %ecx
    123f:	fa                   	cli    
    1240:	e4 a1                	in     $0xa1,%al
    1242:	24 fb                	and    $0xfb,%al
    1244:	e6 a1                	out    %al,$0xa1
    1246:	c3                   	ret    
    1247:	90                   	nop
    1248:	90                   	nop
    1249:	90                   	nop
    124a:	90                   	nop
    124b:	90                   	nop
    124c:	90                   	nop
    124d:	90                   	nop
    124e:	90                   	nop
    124f:	90                   	nop

00001250 <hwint11>:
    1250:	e8 b6 01 00 00       	call   140b <save>
    1255:	e4 a1                	in     $0xa1,%al
    1257:	0c 08                	or     $0x8,%al
    1259:	e6 a1                	out    %al,$0xa1
    125b:	b0 20                	mov    $0x20,%al
    125d:	e6 20                	out    %al,$0x20
    125f:	90                   	nop
    1260:	e6 a0                	out    %al,$0xa0
    1262:	fb                   	sti    
    1263:	68 0b 00 00 00       	push   $0xb
    1268:	ff 15 ac 0c 05 00    	call   *0x50cac
    126e:	59                   	pop    %ecx
    126f:	fa                   	cli    
    1270:	e4 a1                	in     $0xa1,%al
    1272:	24 f7                	and    $0xf7,%al
    1274:	e6 a1                	out    %al,$0xa1
    1276:	c3                   	ret    
    1277:	90                   	nop
    1278:	90                   	nop
    1279:	90                   	nop
    127a:	90                   	nop
    127b:	90                   	nop
    127c:	90                   	nop
    127d:	90                   	nop
    127e:	90                   	nop
    127f:	90                   	nop

00001280 <hwint12>:
    1280:	e8 86 01 00 00       	call   140b <save>
    1285:	e4 a1                	in     $0xa1,%al
    1287:	0c 10                	or     $0x10,%al
    1289:	e6 a1                	out    %al,$0xa1
    128b:	b0 20                	mov    $0x20,%al
    128d:	e6 20                	out    %al,$0x20
    128f:	90                   	nop
    1290:	e6 a0                	out    %al,$0xa0
    1292:	fb                   	sti    
    1293:	68 0c 00 00 00       	push   $0xc
    1298:	ff 15 b0 0c 05 00    	call   *0x50cb0
    129e:	59                   	pop    %ecx
    129f:	fa                   	cli    
    12a0:	e4 a1                	in     $0xa1,%al
    12a2:	24 ef                	and    $0xef,%al
    12a4:	e6 a1                	out    %al,$0xa1
    12a6:	c3                   	ret    
    12a7:	90                   	nop
    12a8:	90                   	nop
    12a9:	90                   	nop
    12aa:	90                   	nop
    12ab:	90                   	nop
    12ac:	90                   	nop
    12ad:	90                   	nop
    12ae:	90                   	nop
    12af:	90                   	nop

000012b0 <hwint13>:
    12b0:	e8 56 01 00 00       	call   140b <save>
    12b5:	e4 a1                	in     $0xa1,%al
    12b7:	0c 20                	or     $0x20,%al
    12b9:	e6 a1                	out    %al,$0xa1
    12bb:	b0 20                	mov    $0x20,%al
    12bd:	e6 20                	out    %al,$0x20
    12bf:	90                   	nop
    12c0:	e6 a0                	out    %al,$0xa0
    12c2:	fb                   	sti    
    12c3:	68 0d 00 00 00       	push   $0xd
    12c8:	ff 15 b4 0c 05 00    	call   *0x50cb4
    12ce:	59                   	pop    %ecx
    12cf:	fa                   	cli    
    12d0:	e4 a1                	in     $0xa1,%al
    12d2:	24 df                	and    $0xdf,%al
    12d4:	e6 a1                	out    %al,$0xa1
    12d6:	c3                   	ret    
    12d7:	90                   	nop
    12d8:	90                   	nop
    12d9:	90                   	nop
    12da:	90                   	nop
    12db:	90                   	nop
    12dc:	90                   	nop
    12dd:	90                   	nop
    12de:	90                   	nop
    12df:	90                   	nop

000012e0 <hwint14>:
    12e0:	e8 26 01 00 00       	call   140b <save>
    12e5:	e4 a1                	in     $0xa1,%al
    12e7:	0c 40                	or     $0x40,%al
    12e9:	e6 a1                	out    %al,$0xa1
    12eb:	b0 20                	mov    $0x20,%al
    12ed:	e6 20                	out    %al,$0x20
    12ef:	90                   	nop
    12f0:	e6 a0                	out    %al,$0xa0
    12f2:	fb                   	sti    
    12f3:	68 0e 00 00 00       	push   $0xe
    12f8:	ff 15 b8 0c 05 00    	call   *0x50cb8
    12fe:	59                   	pop    %ecx
    12ff:	fa                   	cli    
    1300:	e4 a1                	in     $0xa1,%al
    1302:	24 bf                	and    $0xbf,%al
    1304:	e6 a1                	out    %al,$0xa1
    1306:	c3                   	ret    
    1307:	90                   	nop
    1308:	90                   	nop
    1309:	90                   	nop
    130a:	90                   	nop
    130b:	90                   	nop
    130c:	90                   	nop
    130d:	90                   	nop
    130e:	90                   	nop
    130f:	90                   	nop

00001310 <hwint15>:
    1310:	e8 f6 00 00 00       	call   140b <save>
    1315:	e4 a1                	in     $0xa1,%al
    1317:	0c 80                	or     $0x80,%al
    1319:	e6 a1                	out    %al,$0xa1
    131b:	b0 20                	mov    $0x20,%al
    131d:	e6 20                	out    %al,$0x20
    131f:	90                   	nop
    1320:	e6 a0                	out    %al,$0xa0
    1322:	fb                   	sti    
    1323:	68 0f 00 00 00       	push   $0xf
    1328:	ff 15 bc 0c 05 00    	call   *0x50cbc
    132e:	59                   	pop    %ecx
    132f:	fa                   	cli    
    1330:	e4 a1                	in     $0xa1,%al
    1332:	24 7f                	and    $0x7f,%al
    1334:	e6 a1                	out    %al,$0xa1
    1336:	c3                   	ret    

00001337 <divide_error>:
    1337:	68 ff ff ff ff       	push   $0xffffffff
    133c:	68 00 00 00 00       	push   $0x0
    1341:	e9 b9 00 00 00       	jmp    13ff <exception>

00001346 <single_step_exception>:
    1346:	68 ff ff ff ff       	push   $0xffffffff
    134b:	68 01 00 00 00       	push   $0x1
    1350:	e9 aa 00 00 00       	jmp    13ff <exception>

00001355 <nmi>:
    1355:	68 ff ff ff ff       	push   $0xffffffff
    135a:	68 02 00 00 00       	push   $0x2
    135f:	e9 9b 00 00 00       	jmp    13ff <exception>

00001364 <breakpoint_exception>:
    1364:	68 ff ff ff ff       	push   $0xffffffff
    1369:	68 03 00 00 00       	push   $0x3
    136e:	e9 8c 00 00 00       	jmp    13ff <exception>

00001373 <overflow>:
    1373:	68 ff ff ff ff       	push   $0xffffffff
    1378:	68 04 00 00 00       	push   $0x4
    137d:	e9 7d 00 00 00       	jmp    13ff <exception>

00001382 <bounds_check>:
    1382:	68 ff ff ff ff       	push   $0xffffffff
    1387:	68 05 00 00 00       	push   $0x5
    138c:	e9 6e 00 00 00       	jmp    13ff <exception>

00001391 <inval_opcode>:
    1391:	68 ff ff ff ff       	push   $0xffffffff
    1396:	68 06 00 00 00       	push   $0x6
    139b:	e9 5f 00 00 00       	jmp    13ff <exception>

000013a0 <copr_not_available>:
    13a0:	68 ff ff ff ff       	push   $0xffffffff
    13a5:	68 07 00 00 00       	push   $0x7
    13aa:	e9 50 00 00 00       	jmp    13ff <exception>

000013af <double_fault>:
    13af:	68 08 00 00 00       	push   $0x8
    13b4:	e9 46 00 00 00       	jmp    13ff <exception>

000013b9 <copr_seg_overrun>:
    13b9:	68 ff ff ff ff       	push   $0xffffffff
    13be:	68 09 00 00 00       	push   $0x9
    13c3:	e9 37 00 00 00       	jmp    13ff <exception>

000013c8 <inval_tss>:
    13c8:	68 0a 00 00 00       	push   $0xa
    13cd:	e9 2d 00 00 00       	jmp    13ff <exception>

000013d2 <segment_not_present>:
    13d2:	68 0b 00 00 00       	push   $0xb
    13d7:	e9 23 00 00 00       	jmp    13ff <exception>

000013dc <stack_exception>:
    13dc:	68 0c 00 00 00       	push   $0xc
    13e1:	e9 19 00 00 00       	jmp    13ff <exception>

000013e6 <general_protection>:
    13e6:	68 0d 00 00 00       	push   $0xd
    13eb:	e9 0f 00 00 00       	jmp    13ff <exception>

000013f0 <copr_error>:
    13f0:	68 ff ff ff ff       	push   $0xffffffff
    13f5:	68 10 00 00 00       	push   $0x10
    13fa:	e9 00 00 00 00       	jmp    13ff <exception>

000013ff <exception>:
    13ff:	e8 ee 14 00 00       	call   28f2 <exception_handler>
    1404:	81 c4 08 00 00 00    	add    $0x8,%esp
    140a:	f4                   	hlt    

0000140b <save>:
    140b:	60                   	pusha  
    140c:	1e                   	push   %ds
    140d:	06                   	push   %es
    140e:	0f a0                	push   %fs
    1410:	0f a8                	push   %gs
    1412:	89 d6                	mov    %edx,%esi
    1414:	66 8c d2             	mov    %ss,%dx
    1417:	8e da                	mov    %edx,%ds
    1419:	8e c2                	mov    %edx,%es
    141b:	8e e2                	mov    %edx,%fs
    141d:	89 f2                	mov    %esi,%edx
    141f:	89 e6                	mov    %esp,%esi
    1421:	ff 05 88 d6 04 00    	incl   0x4d688
    1427:	81 3d 88 d6 04 00 00 	cmpl   $0x0,0x4d688
    142e:	00 00 00 
    1431:	75 0d                	jne    1440 <save.1>
    1433:	bc 40 42 01 00       	mov    $0x14240,%esp
    1438:	68 6b 14 00 00       	push   $0x146b
    143d:	ff 66 30             	jmp    *0x30(%esi)

00001440 <save.1>:
    1440:	68 7f 14 00 00       	push   $0x147f
    1445:	ff 66 30             	jmp    *0x30(%esi)

00001448 <sys_call>:
    1448:	e8 be ff ff ff       	call   140b <save>
    144d:	fb                   	sti    
    144e:	56                   	push   %esi
    144f:	ff 35 64 ed 04 00    	pushl  0x4ed64
    1455:	52                   	push   %edx
    1456:	51                   	push   %ecx
    1457:	53                   	push   %ebx
    1458:	ff 14 85 80 32 01 00 	call   *0x13280(,%eax,4)
    145f:	81 c4 10 00 00 00    	add    $0x10,%esp
    1465:	5e                   	pop    %esi
    1466:	89 46 2c             	mov    %eax,0x2c(%esi)
    1469:	fa                   	cli    
    146a:	c3                   	ret    

0000146b <restart>:
    146b:	8b 25 64 ed 04 00    	mov    0x4ed64,%esp
    1471:	0f 00 54 24 48       	lldt   0x48(%esp)
    1476:	8d 44 24 48          	lea    0x48(%esp),%eax
    147a:	a3 a4 e7 04 00       	mov    %eax,0x4e7a4

0000147f <restart_reenter>:
    147f:	ff 0d 88 d6 04 00    	decl   0x4d688
    1485:	0f a9                	pop    %gs
    1487:	0f a1                	pop    %fs
    1489:	07                   	pop    %es
    148a:	1f                   	pop    %ds
    148b:	61                   	popa   
    148c:	81 c4 04 00 00 00    	add    $0x4,%esp
    1492:	cf                   	iret   
    1493:	90                   	nop

00001494 <cstart>:
    1494:	55                   	push   %ebp
    1495:	89 e5                	mov    %esp,%ebp
    1497:	83 ec 28             	sub    $0x28,%esp
    149a:	b8 d4 01 05 00       	mov    $0x501d4,%eax
    149f:	0f b7 00             	movzwl (%eax),%eax
    14a2:	0f b7 c0             	movzwl %ax,%eax
    14a5:	8d 50 01             	lea    0x1(%eax),%edx
    14a8:	b8 d4 01 05 00       	mov    $0x501d4,%eax
    14ad:	83 c0 02             	add    $0x2,%eax
    14b0:	8b 00                	mov    (%eax),%eax
    14b2:	89 54 24 08          	mov    %edx,0x8(%esp)
    14b6:	89 44 24 04          	mov    %eax,0x4(%esp)
    14ba:	c7 04 24 a0 d6 04 00 	movl   $0x4d6a0,(%esp)
    14c1:	e8 2a ec 00 00       	call   100f0 <memcpy>
    14c6:	c7 45 f4 d4 01 05 00 	movl   $0x501d4,-0xc(%ebp)
    14cd:	b8 d4 01 05 00       	mov    $0x501d4,%eax
    14d2:	83 c0 02             	add    $0x2,%eax
    14d5:	89 45 f0             	mov    %eax,-0x10(%ebp)
    14d8:	8b 45 f4             	mov    -0xc(%ebp),%eax
    14db:	66 c7 00 ff 03       	movw   $0x3ff,(%eax)
    14e0:	ba a0 d6 04 00       	mov    $0x4d6a0,%edx
    14e5:	8b 45 f0             	mov    -0x10(%ebp),%eax
    14e8:	89 10                	mov    %edx,(%eax)
    14ea:	c7 45 ec 64 4b 01 00 	movl   $0x14b64,-0x14(%ebp)
    14f1:	b8 64 4b 01 00       	mov    $0x14b64,%eax
    14f6:	83 c0 02             	add    $0x2,%eax
    14f9:	89 45 e8             	mov    %eax,-0x18(%ebp)
    14fc:	8b 45 ec             	mov    -0x14(%ebp),%eax
    14ff:	66 c7 00 ff 07       	movw   $0x7ff,(%eax)
    1504:	ba 00 02 05 00       	mov    $0x50200,%edx
    1509:	8b 45 e8             	mov    -0x18(%ebp),%eax
    150c:	89 10                	mov    %edx,(%eax)
    150e:	e8 c9 0c 00 00       	call   21dc <init_prot>
    1513:	c9                   	leave  
    1514:	c3                   	ret    
    1515:	90                   	nop
    1516:	90                   	nop
    1517:	90                   	nop

00001518 <kernel_main>:
    1518:	55                   	push   %ebp
    1519:	89 e5                	mov    %esp,%ebp
    151b:	83 ec 48             	sub    $0x48,%esp
    151e:	c7 04 24 48 0a 01 00 	movl   $0x10a48,(%esp)
    1525:	e8 c6 39 00 00       	call   4ef0 <disp_str>
    152a:	c7 45 dc c0 0c 05 00 	movl   $0x50cc0,-0x24(%ebp)
    1531:	c7 45 d8 80 d6 04 00 	movl   $0x4d680,-0x28(%ebp)
    1538:	c7 45 f4 00 00 00 00 	movl   $0x0,-0xc(%ebp)
    153f:	e9 f9 02 00 00       	jmp    183d <kernel_main+0x325>
    1544:	83 7d f4 0d          	cmpl   $0xd,-0xc(%ebp)
    1548:	7e 0f                	jle    1559 <kernel_main+0x41>
    154a:	8b 45 dc             	mov    -0x24(%ebp),%eax
    154d:	c7 40 72 20 00 00 00 	movl   $0x20,0x72(%eax)
    1554:	e9 d5 02 00 00       	jmp    182e <kernel_main+0x316>
    1559:	83 7d f4 09          	cmpl   $0x9,-0xc(%ebp)
    155d:	7f 2d                	jg     158c <kernel_main+0x74>
    155f:	8b 55 f4             	mov    -0xc(%ebp),%edx
    1562:	89 d0                	mov    %edx,%eax
    1564:	c1 e0 02             	shl    $0x2,%eax
    1567:	01 d0                	add    %edx,%eax
    1569:	c1 e0 03             	shl    $0x3,%eax
    156c:	05 40 30 01 00       	add    $0x13040,%eax
    1571:	89 45 e0             	mov    %eax,-0x20(%ebp)
    1574:	c6 45 e6 01          	movb   $0x1,-0x1a(%ebp)
    1578:	c6 45 e7 01          	movb   $0x1,-0x19(%ebp)
    157c:	c7 45 ec 02 12 00 00 	movl   $0x1202,-0x14(%ebp)
    1583:	c7 45 e8 0f 00 00 00 	movl   $0xf,-0x18(%ebp)
    158a:	eb 30                	jmp    15bc <kernel_main+0xa4>
    158c:	8b 55 f4             	mov    -0xc(%ebp),%edx
    158f:	89 d0                	mov    %edx,%eax
    1591:	c1 e0 02             	shl    $0x2,%eax
    1594:	01 d0                	add    %edx,%eax
    1596:	c1 e0 03             	shl    $0x3,%eax
    1599:	2d 90 01 00 00       	sub    $0x190,%eax
    159e:	05 e0 31 01 00       	add    $0x131e0,%eax
    15a3:	89 45 e0             	mov    %eax,-0x20(%ebp)
    15a6:	c6 45 e6 03          	movb   $0x3,-0x1a(%ebp)
    15aa:	c6 45 e7 03          	movb   $0x3,-0x19(%ebp)
    15ae:	c7 45 ec 02 02 00 00 	movl   $0x202,-0x14(%ebp)
    15b5:	c7 45 e8 05 00 00 00 	movl   $0x5,-0x18(%ebp)
    15bc:	8b 45 e0             	mov    -0x20(%ebp),%eax
    15bf:	8d 50 08             	lea    0x8(%eax),%edx
    15c2:	8b 45 dc             	mov    -0x24(%ebp),%eax
    15c5:	83 c0 62             	add    $0x62,%eax
    15c8:	89 54 24 04          	mov    %edx,0x4(%esp)
    15cc:	89 04 24             	mov    %eax,(%esp)
    15cf:	e8 72 eb 00 00       	call   10146 <strcpy>
    15d4:	8b 45 dc             	mov    -0x24(%ebp),%eax
    15d7:	c7 80 1a 02 00 00 3e 	movl   $0x3e,0x21a(%eax)
    15de:	00 00 00 
    15e1:	8b 45 e0             	mov    -0x20(%ebp),%eax
    15e4:	83 c0 08             	add    $0x8,%eax
    15e7:	c7 44 24 04 59 0a 01 	movl   $0x10a59,0x4(%esp)
    15ee:	00 
    15ef:	89 04 24             	mov    %eax,(%esp)
    15f2:	e8 e2 ec 00 00       	call   102d9 <strcmp>
    15f7:	85 c0                	test   %eax,%eax
    15f9:	74 51                	je     164c <kernel_main+0x134>
    15fb:	8b 4d dc             	mov    -0x24(%ebp),%ecx
    15fe:	a1 a8 d6 04 00       	mov    0x4d6a8,%eax
    1603:	8b 15 ac d6 04 00    	mov    0x4d6ac,%edx
    1609:	89 41 4a             	mov    %eax,0x4a(%ecx)
    160c:	89 51 4e             	mov    %edx,0x4e(%ecx)
    160f:	8b 4d dc             	mov    -0x24(%ebp),%ecx
    1612:	a1 b0 d6 04 00       	mov    0x4d6b0,%eax
    1617:	8b 15 b4 d6 04 00    	mov    0x4d6b4,%edx
    161d:	89 41 52             	mov    %eax,0x52(%ecx)
    1620:	89 51 56             	mov    %edx,0x56(%ecx)
    1623:	0f b6 45 e6          	movzbl -0x1a(%ebp),%eax
    1627:	c1 e0 05             	shl    $0x5,%eax
    162a:	83 c8 98             	or     $0xffffff98,%eax
    162d:	89 c2                	mov    %eax,%edx
    162f:	8b 45 dc             	mov    -0x24(%ebp),%eax
    1632:	88 50 4f             	mov    %dl,0x4f(%eax)
    1635:	0f b6 45 e6          	movzbl -0x1a(%ebp),%eax
    1639:	c1 e0 05             	shl    $0x5,%eax
    163c:	83 c8 92             	or     $0xffffff92,%eax
    163f:	89 c2                	mov    %eax,%edx
    1641:	8b 45 dc             	mov    -0x24(%ebp),%eax
    1644:	88 50 57             	mov    %dl,0x57(%eax)
    1647:	e9 b3 00 00 00       	jmp    16ff <kernel_main+0x1e7>
    164c:	8d 45 cc             	lea    -0x34(%ebp),%eax
    164f:	89 44 24 04          	mov    %eax,0x4(%esp)
    1653:	8d 45 d0             	lea    -0x30(%ebp),%eax
    1656:	89 04 24             	mov    %eax,(%esp)
    1659:	e8 78 3b 00 00       	call   51d6 <get_kernel_map>
    165e:	89 45 d4             	mov    %eax,-0x2c(%ebp)
    1661:	83 7d d4 00          	cmpl   $0x0,-0x2c(%ebp)
    1665:	74 24                	je     168b <kernel_main+0x173>
    1667:	c7 44 24 0c 56 00 00 	movl   $0x56,0xc(%esp)
    166e:	00 
    166f:	c7 44 24 08 5e 0a 01 	movl   $0x10a5e,0x8(%esp)
    1676:	00 
    1677:	c7 44 24 04 5e 0a 01 	movl   $0x10a5e,0x4(%esp)
    167e:	00 
    167f:	c7 04 24 65 0a 01 00 	movl   $0x10a65,(%esp)
    1686:	e8 3f ed 00 00       	call   103ca <assertion_failure>
    168b:	0f b6 45 e6          	movzbl -0x1a(%ebp),%eax
    168f:	c1 e0 05             	shl    $0x5,%eax
    1692:	66 0d 98 c0          	or     $0xc098,%ax
    1696:	0f b7 c0             	movzwl %ax,%eax
    1699:	8b 4d d0             	mov    -0x30(%ebp),%ecx
    169c:	8b 55 cc             	mov    -0x34(%ebp),%edx
    169f:	8d 14 11             	lea    (%ecx,%edx,1),%edx
    16a2:	89 d1                	mov    %edx,%ecx
    16a4:	c1 e9 0c             	shr    $0xc,%ecx
    16a7:	8b 55 dc             	mov    -0x24(%ebp),%edx
    16aa:	83 c2 4a             	add    $0x4a,%edx
    16ad:	89 44 24 0c          	mov    %eax,0xc(%esp)
    16b1:	89 4c 24 08          	mov    %ecx,0x8(%esp)
    16b5:	c7 44 24 04 00 00 00 	movl   $0x0,0x4(%esp)
    16bc:	00 
    16bd:	89 14 24             	mov    %edx,(%esp)
    16c0:	e8 c1 11 00 00       	call   2886 <init_desc>
    16c5:	0f b6 45 e6          	movzbl -0x1a(%ebp),%eax
    16c9:	c1 e0 05             	shl    $0x5,%eax
    16cc:	66 0d 92 c0          	or     $0xc092,%ax
    16d0:	0f b7 c0             	movzwl %ax,%eax
    16d3:	8b 4d d0             	mov    -0x30(%ebp),%ecx
    16d6:	8b 55 cc             	mov    -0x34(%ebp),%edx
    16d9:	8d 14 11             	lea    (%ecx,%edx,1),%edx
    16dc:	89 d1                	mov    %edx,%ecx
    16de:	c1 e9 0c             	shr    $0xc,%ecx
    16e1:	8b 55 dc             	mov    -0x24(%ebp),%edx
    16e4:	83 c2 52             	add    $0x52,%edx
    16e7:	89 44 24 0c          	mov    %eax,0xc(%esp)
    16eb:	89 4c 24 08          	mov    %ecx,0x8(%esp)
    16ef:	c7 44 24 04 00 00 00 	movl   $0x0,0x4(%esp)
    16f6:	00 
    16f7:	89 14 24             	mov    %edx,(%esp)
    16fa:	e8 87 11 00 00       	call   2886 <init_desc>
    16ff:	0f b6 45 e7          	movzbl -0x19(%ebp),%eax
    1703:	83 c8 04             	or     $0x4,%eax
    1706:	0f b6 d0             	movzbl %al,%edx
    1709:	8b 45 dc             	mov    -0x24(%ebp),%eax
    170c:	89 50 38             	mov    %edx,0x38(%eax)
    170f:	0f b6 45 e7          	movzbl -0x19(%ebp),%eax
    1713:	83 c8 0c             	or     $0xc,%eax
    1716:	0f b6 d0             	movzbl %al,%edx
    1719:	8b 45 dc             	mov    -0x24(%ebp),%eax
    171c:	89 50 44             	mov    %edx,0x44(%eax)
    171f:	8b 45 dc             	mov    -0x24(%ebp),%eax
    1722:	8b 50 44             	mov    0x44(%eax),%edx
    1725:	8b 45 dc             	mov    -0x24(%ebp),%eax
    1728:	89 50 04             	mov    %edx,0x4(%eax)
    172b:	8b 45 dc             	mov    -0x24(%ebp),%eax
    172e:	8b 50 04             	mov    0x4(%eax),%edx
    1731:	8b 45 dc             	mov    -0x24(%ebp),%eax
    1734:	89 50 08             	mov    %edx,0x8(%eax)
    1737:	8b 45 dc             	mov    -0x24(%ebp),%eax
    173a:	8b 50 08             	mov    0x8(%eax),%edx
    173d:	8b 45 dc             	mov    -0x24(%ebp),%eax
    1740:	89 50 0c             	mov    %edx,0xc(%eax)
    1743:	0f b6 45 e7          	movzbl -0x19(%ebp),%eax
    1747:	83 c8 18             	or     $0x18,%eax
    174a:	0f b6 d0             	movzbl %al,%edx
    174d:	8b 45 dc             	mov    -0x24(%ebp),%eax
    1750:	89 10                	mov    %edx,(%eax)
    1752:	8b 45 e0             	mov    -0x20(%ebp),%eax
    1755:	8b 00                	mov    (%eax),%eax
    1757:	89 c2                	mov    %eax,%edx
    1759:	8b 45 dc             	mov    -0x24(%ebp),%eax
    175c:	89 50 34             	mov    %edx,0x34(%eax)
    175f:	8b 55 d8             	mov    -0x28(%ebp),%edx
    1762:	8b 45 dc             	mov    -0x24(%ebp),%eax
    1765:	89 50 40             	mov    %edx,0x40(%eax)
    1768:	8b 55 ec             	mov    -0x14(%ebp),%edx
    176b:	8b 45 dc             	mov    -0x24(%ebp),%eax
    176e:	89 50 3c             	mov    %edx,0x3c(%eax)
    1771:	8b 45 dc             	mov    -0x24(%ebp),%eax
    1774:	8b 55 e8             	mov    -0x18(%ebp),%edx
    1777:	89 50 5e             	mov    %edx,0x5e(%eax)
    177a:	8b 45 dc             	mov    -0x24(%ebp),%eax
    177d:	8b 50 5e             	mov    0x5e(%eax),%edx
    1780:	8b 45 dc             	mov    -0x24(%ebp),%eax
    1783:	89 50 5a             	mov    %edx,0x5a(%eax)
    1786:	8b 45 dc             	mov    -0x24(%ebp),%eax
    1789:	c7 40 72 00 00 00 00 	movl   $0x0,0x72(%eax)
    1790:	8b 45 dc             	mov    -0x24(%ebp),%eax
    1793:	c7 80 02 02 00 00 00 	movl   $0x0,0x202(%eax)
    179a:	00 00 00 
    179d:	8b 45 dc             	mov    -0x24(%ebp),%eax
    17a0:	c7 80 06 02 00 00 3e 	movl   $0x3e,0x206(%eax)
    17a7:	00 00 00 
    17aa:	8b 45 dc             	mov    -0x24(%ebp),%eax
    17ad:	c7 80 0a 02 00 00 3e 	movl   $0x3e,0x20a(%eax)
    17b4:	00 00 00 
    17b7:	8b 45 dc             	mov    -0x24(%ebp),%eax
    17ba:	c7 80 0e 02 00 00 00 	movl   $0x0,0x20e(%eax)
    17c1:	00 00 00 
    17c4:	8b 45 dc             	mov    -0x24(%ebp),%eax
    17c7:	c7 80 12 02 00 00 00 	movl   $0x0,0x212(%eax)
    17ce:	00 00 00 
    17d1:	8b 45 dc             	mov    -0x24(%ebp),%eax
    17d4:	c7 80 16 02 00 00 00 	movl   $0x0,0x216(%eax)
    17db:	00 00 00 
    17de:	8b 15 60 ed 04 00    	mov    0x4ed60,%edx
    17e4:	8b 45 dc             	mov    -0x24(%ebp),%eax
    17e7:	89 90 2a 02 00 00    	mov    %edx,0x22a(%eax)
    17ed:	8b 15 60 ed 04 00    	mov    0x4ed60,%edx
    17f3:	8b 45 dc             	mov    -0x24(%ebp),%eax
    17f6:	89 90 2e 02 00 00    	mov    %edx,0x22e(%eax)
    17fc:	c7 45 f0 00 00 00 00 	movl   $0x0,-0x10(%ebp)
    1803:	eb 18                	jmp    181d <kernel_main+0x305>
    1805:	8b 45 dc             	mov    -0x24(%ebp),%eax
    1808:	8b 55 f0             	mov    -0x10(%ebp),%edx
    180b:	81 c2 8c 00 00 00    	add    $0x8c,%edx
    1811:	c7 44 90 06 00 00 00 	movl   $0x0,0x6(%eax,%edx,4)
    1818:	00 
    1819:	83 45 f0 01          	addl   $0x1,-0x10(%ebp)
    181d:	83 7d f0 3f          	cmpl   $0x3f,-0x10(%ebp)
    1821:	7e e2                	jle    1805 <kernel_main+0x2ed>
    1823:	8b 45 e0             	mov    -0x20(%ebp),%eax
    1826:	8b 40 04             	mov    0x4(%eax),%eax
    1829:	f7 d8                	neg    %eax
    182b:	01 45 d8             	add    %eax,-0x28(%ebp)
    182e:	83 45 f4 01          	addl   $0x1,-0xc(%ebp)
    1832:	81 45 dc 36 03 00 00 	addl   $0x336,-0x24(%ebp)
    1839:	83 45 e0 28          	addl   $0x28,-0x20(%ebp)
    183d:	83 7d f4 29          	cmpl   $0x29,-0xc(%ebp)
    1841:	0f 8e fd fc ff ff    	jle    1544 <kernel_main+0x2c>
    1847:	c7 05 88 d6 04 00 00 	movl   $0x0,0x4d688
    184e:	00 00 00 
    1851:	c7 05 e0 01 05 00 00 	movl   $0x0,0x501e0
    1858:	00 00 00 
    185b:	c7 05 64 ed 04 00 c0 	movl   $0x50cc0,0x4ed64
    1862:	0c 05 00 
    1865:	e8 cf 07 00 00       	call   2039 <init_clock>
    186a:	e8 9e d2 00 00       	call   eb0d <init_keyboard>
    186f:	e8 f7 fb ff ff       	call   146b <restart>
    1874:	eb fe                	jmp    1874 <kernel_main+0x35c>

00001876 <get_ticks>:
    1876:	55                   	push   %ebp
    1877:	89 e5                	mov    %esp,%ebp
    1879:	83 ec 48             	sub    $0x48,%esp
    187c:	8d 45 c8             	lea    -0x38(%ebp),%eax
    187f:	89 04 24             	mov    %eax,(%esp)
    1882:	e8 bb 1c 00 00       	call   3542 <reset_msg>
    1887:	c7 45 cc 02 00 00 00 	movl   $0x2,-0x34(%ebp)
    188e:	8d 45 c8             	lea    -0x38(%ebp),%eax
    1891:	89 44 24 08          	mov    %eax,0x8(%esp)
    1895:	c7 44 24 04 01 00 00 	movl   $0x1,0x4(%esp)
    189c:	00 
    189d:	c7 04 24 03 00 00 00 	movl   $0x3,(%esp)
    18a4:	e8 cf e8 00 00       	call   10178 <send_recv>
    18a9:	8b 45 d0             	mov    -0x30(%ebp),%eax
    18ac:	c9                   	leave  
    18ad:	c3                   	ret    

000018ae <untar>:
    18ae:	55                   	push   %ebp
    18af:	89 e5                	mov    %esp,%ebp
    18b1:	81 ec 48 20 00 00    	sub    $0x2048,%esp
    18b7:	c7 04 24 6e 0a 01 00 	movl   $0x10a6e,(%esp)
    18be:	e8 45 e4 00 00       	call   fd08 <printf>
    18c3:	c7 44 24 04 02 00 00 	movl   $0x2,0x4(%esp)
    18ca:	00 
    18cb:	8b 45 08             	mov    0x8(%ebp),%eax
    18ce:	89 04 24             	mov    %eax,(%esp)
    18d1:	e8 fa ea 00 00       	call   103d0 <open>
    18d6:	89 45 e4             	mov    %eax,-0x1c(%ebp)
    18d9:	83 7d e4 ff          	cmpl   $0xffffffff,-0x1c(%ebp)
    18dd:	75 24                	jne    1903 <untar+0x55>
    18df:	c7 44 24 0c d0 00 00 	movl   $0xd0,0xc(%esp)
    18e6:	00 
    18e7:	c7 44 24 08 5e 0a 01 	movl   $0x10a5e,0x8(%esp)
    18ee:	00 
    18ef:	c7 44 24 04 5e 0a 01 	movl   $0x10a5e,0x4(%esp)
    18f6:	00 
    18f7:	c7 04 24 87 0a 01 00 	movl   $0x10a87,(%esp)
    18fe:	e8 c7 ea 00 00       	call   103ca <assertion_failure>
    1903:	c7 45 e0 00 20 00 00 	movl   $0x2000,-0x20(%ebp)
    190a:	c7 45 f4 00 00 00 00 	movl   $0x0,-0xc(%ebp)
    1911:	c7 45 dc 00 00 00 00 	movl   $0x0,-0x24(%ebp)
    1918:	c7 44 24 08 00 02 00 	movl   $0x200,0x8(%esp)
    191f:	00 
    1920:	8d 85 d0 df ff ff    	lea    -0x2030(%ebp),%eax
    1926:	89 44 24 04          	mov    %eax,0x4(%esp)
    192a:	8b 45 e4             	mov    -0x1c(%ebp),%eax
    192d:	89 04 24             	mov    %eax,(%esp)
    1930:	e8 7f eb 00 00       	call   104b4 <read>
    1935:	89 45 dc             	mov    %eax,-0x24(%ebp)
    1938:	81 7d dc 00 02 00 00 	cmpl   $0x200,-0x24(%ebp)
    193f:	74 24                	je     1965 <untar+0xb7>
    1941:	c7 44 24 0c d9 00 00 	movl   $0xd9,0xc(%esp)
    1948:	00 
    1949:	c7 44 24 08 5e 0a 01 	movl   $0x10a5e,0x8(%esp)
    1950:	00 
    1951:	c7 44 24 04 5e 0a 01 	movl   $0x10a5e,0x4(%esp)
    1958:	00 
    1959:	c7 04 24 90 0a 01 00 	movl   $0x10a90,(%esp)
    1960:	e8 65 ea 00 00       	call   103ca <assertion_failure>
    1965:	0f b6 85 d0 df ff ff 	movzbl -0x2030(%ebp),%eax
    196c:	84 c0                	test   %al,%al
    196e:	75 21                	jne    1991 <untar+0xe3>
    1970:	83 7d f4 00          	cmpl   $0x0,-0xc(%ebp)
    1974:	75 0c                	jne    1982 <untar+0xd4>
    1976:	c7 04 24 a5 0a 01 00 	movl   $0x10aa5,(%esp)
    197d:	e8 86 e3 00 00       	call   fd08 <printf>
    1982:	83 7d f4 00          	cmpl   $0x0,-0xc(%ebp)
    1986:	0f 85 6c 01 00 00    	jne    1af8 <untar+0x24a>
    198c:	e9 d3 01 00 00       	jmp    1b64 <untar+0x2b6>
    1991:	83 45 f4 01          	addl   $0x1,-0xc(%ebp)
    1995:	8d 85 d0 df ff ff    	lea    -0x2030(%ebp),%eax
    199b:	89 45 d8             	mov    %eax,-0x28(%ebp)
    199e:	8b 45 d8             	mov    -0x28(%ebp),%eax
    19a1:	83 c0 7c             	add    $0x7c,%eax
    19a4:	89 45 f0             	mov    %eax,-0x10(%ebp)
    19a7:	c7 45 ec 00 00 00 00 	movl   $0x0,-0x14(%ebp)
    19ae:	eb 20                	jmp    19d0 <untar+0x122>
    19b0:	8b 45 ec             	mov    -0x14(%ebp),%eax
    19b3:	8d 14 c5 00 00 00 00 	lea    0x0(,%eax,8),%edx
    19ba:	8b 45 f0             	mov    -0x10(%ebp),%eax
    19bd:	0f b6 00             	movzbl (%eax),%eax
    19c0:	0f be c0             	movsbl %al,%eax
    19c3:	83 e8 30             	sub    $0x30,%eax
    19c6:	8d 04 02             	lea    (%edx,%eax,1),%eax
    19c9:	89 45 ec             	mov    %eax,-0x14(%ebp)
    19cc:	83 45 f0 01          	addl   $0x1,-0x10(%ebp)
    19d0:	8b 45 f0             	mov    -0x10(%ebp),%eax
    19d3:	0f b6 00             	movzbl (%eax),%eax
    19d6:	84 c0                	test   %al,%al
    19d8:	75 d6                	jne    19b0 <untar+0x102>
    19da:	8b 45 ec             	mov    -0x14(%ebp),%eax
    19dd:	89 45 e8             	mov    %eax,-0x18(%ebp)
    19e0:	8b 45 d8             	mov    -0x28(%ebp),%eax
    19e3:	c7 44 24 04 07 00 00 	movl   $0x7,0x4(%esp)
    19ea:	00 
    19eb:	89 04 24             	mov    %eax,(%esp)
    19ee:	e8 dd e9 00 00       	call   103d0 <open>
    19f3:	89 45 d4             	mov    %eax,-0x2c(%ebp)
    19f6:	83 7d d4 ff          	cmpl   $0xffffffff,-0x2c(%ebp)
    19fa:	75 2f                	jne    1a2b <untar+0x17d>
    19fc:	8b 45 d8             	mov    -0x28(%ebp),%eax
    19ff:	89 44 24 04          	mov    %eax,0x4(%esp)
    1a03:	c7 04 24 c0 0a 01 00 	movl   $0x10ac0,(%esp)
    1a0a:	e8 f9 e2 00 00       	call   fd08 <printf>
    1a0f:	c7 04 24 df 0a 01 00 	movl   $0x10adf,(%esp)
    1a16:	e8 ed e2 00 00       	call   fd08 <printf>
    1a1b:	8b 45 e4             	mov    -0x1c(%ebp),%eax
    1a1e:	89 04 24             	mov    %eax,(%esp)
    1a21:	e8 0e eb 00 00       	call   10534 <close>
    1a26:	e9 57 01 00 00       	jmp    1b82 <untar+0x2d4>
    1a2b:	8b 45 d8             	mov    -0x28(%ebp),%eax
    1a2e:	8d 50 7c             	lea    0x7c(%eax),%edx
    1a31:	8b 45 d8             	mov    -0x28(%ebp),%eax
    1a34:	89 54 24 08          	mov    %edx,0x8(%esp)
    1a38:	89 44 24 04          	mov    %eax,0x4(%esp)
    1a3c:	c7 04 24 e8 0a 01 00 	movl   $0x10ae8,(%esp)
    1a43:	e8 c0 e2 00 00       	call   fd08 <printf>
    1a48:	e9 91 00 00 00       	jmp    1ade <untar+0x230>
    1a4d:	8b 45 e0             	mov    -0x20(%ebp),%eax
    1a50:	39 45 e8             	cmp    %eax,-0x18(%ebp)
    1a53:	0f 4e 45 e8          	cmovle -0x18(%ebp),%eax
    1a57:	89 45 d0             	mov    %eax,-0x30(%ebp)
    1a5a:	8b 45 d0             	mov    -0x30(%ebp),%eax
    1a5d:	83 e8 01             	sub    $0x1,%eax
    1a60:	8d 90 ff 01 00 00    	lea    0x1ff(%eax),%edx
    1a66:	85 c0                	test   %eax,%eax
    1a68:	0f 48 c2             	cmovs  %edx,%eax
    1a6b:	c1 f8 09             	sar    $0x9,%eax
    1a6e:	83 c0 01             	add    $0x1,%eax
    1a71:	c1 e0 09             	shl    $0x9,%eax
    1a74:	89 44 24 08          	mov    %eax,0x8(%esp)
    1a78:	8d 85 d0 df ff ff    	lea    -0x2030(%ebp),%eax
    1a7e:	89 44 24 04          	mov    %eax,0x4(%esp)
    1a82:	8b 45 e4             	mov    -0x1c(%ebp),%eax
    1a85:	89 04 24             	mov    %eax,(%esp)
    1a88:	e8 27 ea 00 00       	call   104b4 <read>
    1a8d:	8b 45 d0             	mov    -0x30(%ebp),%eax
    1a90:	89 44 24 08          	mov    %eax,0x8(%esp)
    1a94:	8d 85 d0 df ff ff    	lea    -0x2030(%ebp),%eax
    1a9a:	89 44 24 04          	mov    %eax,0x4(%esp)
    1a9e:	8b 45 d4             	mov    -0x2c(%ebp),%eax
    1aa1:	89 04 24             	mov    %eax,(%esp)
    1aa4:	e8 4b ea 00 00       	call   104f4 <write>
    1aa9:	89 45 dc             	mov    %eax,-0x24(%ebp)
    1aac:	8b 45 dc             	mov    -0x24(%ebp),%eax
    1aaf:	3b 45 d0             	cmp    -0x30(%ebp),%eax
    1ab2:	74 24                	je     1ad8 <untar+0x22a>
    1ab4:	c7 44 24 0c f9 00 00 	movl   $0xf9,0xc(%esp)
    1abb:	00 
    1abc:	c7 44 24 08 5e 0a 01 	movl   $0x10a5e,0x8(%esp)
    1ac3:	00 
    1ac4:	c7 44 24 04 5e 0a 01 	movl   $0x10a5e,0x4(%esp)
    1acb:	00 
    1acc:	c7 04 24 fa 0a 01 00 	movl   $0x10afa,(%esp)
    1ad3:	e8 f2 e8 00 00       	call   103ca <assertion_failure>
    1ad8:	8b 45 d0             	mov    -0x30(%ebp),%eax
    1adb:	29 45 e8             	sub    %eax,-0x18(%ebp)
    1ade:	83 7d e8 00          	cmpl   $0x0,-0x18(%ebp)
    1ae2:	0f 85 65 ff ff ff    	jne    1a4d <untar+0x19f>
    1ae8:	8b 45 d4             	mov    -0x2c(%ebp),%eax
    1aeb:	89 04 24             	mov    %eax,(%esp)
    1aee:	e8 41 ea 00 00       	call   10534 <close>
    1af3:	e9 20 fe ff ff       	jmp    1918 <untar+0x6a>
    1af8:	c7 44 24 08 01 00 00 	movl   $0x1,0x8(%esp)
    1aff:	00 
    1b00:	c7 44 24 04 00 00 00 	movl   $0x0,0x4(%esp)
    1b07:	00 
    1b08:	8b 45 e4             	mov    -0x1c(%ebp),%eax
    1b0b:	89 04 24             	mov    %eax,(%esp)
    1b0e:	e8 55 ea 00 00       	call   10568 <lseek>
    1b13:	c6 85 d0 df ff ff 00 	movb   $0x0,-0x2030(%ebp)
    1b1a:	c7 44 24 08 01 00 00 	movl   $0x1,0x8(%esp)
    1b21:	00 
    1b22:	8d 85 d0 df ff ff    	lea    -0x2030(%ebp),%eax
    1b28:	89 44 24 04          	mov    %eax,0x4(%esp)
    1b2c:	8b 45 e4             	mov    -0x1c(%ebp),%eax
    1b2f:	89 04 24             	mov    %eax,(%esp)
    1b32:	e8 bd e9 00 00       	call   104f4 <write>
    1b37:	89 45 dc             	mov    %eax,-0x24(%ebp)
    1b3a:	83 7d dc 01          	cmpl   $0x1,-0x24(%ebp)
    1b3e:	74 24                	je     1b64 <untar+0x2b6>
    1b40:	c7 44 24 0c 03 01 00 	movl   $0x103,0xc(%esp)
    1b47:	00 
    1b48:	c7 44 24 08 5e 0a 01 	movl   $0x10a5e,0x8(%esp)
    1b4f:	00 
    1b50:	c7 44 24 04 5e 0a 01 	movl   $0x10a5e,0x4(%esp)
    1b57:	00 
    1b58:	c7 04 24 0b 0b 01 00 	movl   $0x10b0b,(%esp)
    1b5f:	e8 66 e8 00 00       	call   103ca <assertion_failure>
    1b64:	8b 45 e4             	mov    -0x1c(%ebp),%eax
    1b67:	89 04 24             	mov    %eax,(%esp)
    1b6a:	e8 c5 e9 00 00       	call   10534 <close>
    1b6f:	8b 45 f4             	mov    -0xc(%ebp),%eax
    1b72:	89 44 24 04          	mov    %eax,0x4(%esp)
    1b76:	c7 04 24 16 0b 01 00 	movl   $0x10b16,(%esp)
    1b7d:	e8 86 e1 00 00       	call   fd08 <printf>
    1b82:	c9                   	leave  
    1b83:	c3                   	ret    

00001b84 <shell>:
    1b84:	55                   	push   %ebp
    1b85:	89 e5                	mov    %esp,%ebp
    1b87:	81 ec c8 10 00 00    	sub    $0x10c8,%esp
    1b8d:	c7 44 24 04 02 00 00 	movl   $0x2,0x4(%esp)
    1b94:	00 
    1b95:	8b 45 08             	mov    0x8(%ebp),%eax
    1b98:	89 04 24             	mov    %eax,(%esp)
    1b9b:	e8 30 e8 00 00       	call   103d0 <open>
    1ba0:	89 45 e4             	mov    %eax,-0x1c(%ebp)
    1ba3:	83 7d e4 00          	cmpl   $0x0,-0x1c(%ebp)
    1ba7:	74 24                	je     1bcd <shell+0x49>
    1ba9:	c7 44 24 0c 16 01 00 	movl   $0x116,0xc(%esp)
    1bb0:	00 
    1bb1:	c7 44 24 08 5e 0a 01 	movl   $0x10a5e,0x8(%esp)
    1bb8:	00 
    1bb9:	c7 44 24 04 5e 0a 01 	movl   $0x10a5e,0x4(%esp)
    1bc0:	00 
    1bc1:	c7 04 24 1e 0b 01 00 	movl   $0x10b1e,(%esp)
    1bc8:	e8 fd e7 00 00       	call   103ca <assertion_failure>
    1bcd:	c7 44 24 04 02 00 00 	movl   $0x2,0x4(%esp)
    1bd4:	00 
    1bd5:	8b 45 08             	mov    0x8(%ebp),%eax
    1bd8:	89 04 24             	mov    %eax,(%esp)
    1bdb:	e8 f0 e7 00 00       	call   103d0 <open>
    1be0:	89 45 e0             	mov    %eax,-0x20(%ebp)
    1be3:	83 7d e0 01          	cmpl   $0x1,-0x20(%ebp)
    1be7:	74 24                	je     1c0d <shell+0x89>
    1be9:	c7 44 24 0c 18 01 00 	movl   $0x118,0xc(%esp)
    1bf0:	00 
    1bf1:	c7 44 24 08 5e 0a 01 	movl   $0x10a5e,0x8(%esp)
    1bf8:	00 
    1bf9:	c7 44 24 04 5e 0a 01 	movl   $0x10a5e,0x4(%esp)
    1c00:	00 
    1c01:	c7 04 24 2c 0b 01 00 	movl   $0x10b2c,(%esp)
    1c08:	e8 bd e7 00 00       	call   103ca <assertion_failure>
    1c0d:	c7 45 dc 00 00 00 00 	movl   $0x0,-0x24(%ebp)
    1c14:	8b 45 dc             	mov    -0x24(%ebp),%eax
    1c17:	89 04 24             	mov    %eax,(%esp)
    1c1a:	e8 85 ed 00 00       	call   109a4 <uname>
    1c1f:	eb 01                	jmp    1c22 <shell+0x9e>
    1c21:	90                   	nop
    1c22:	8b 45 dc             	mov    -0x24(%ebp),%eax
    1c25:	83 c0 09             	add    $0x9,%eax
    1c28:	89 44 24 04          	mov    %eax,0x4(%esp)
    1c2c:	c7 04 24 3b 0b 01 00 	movl   $0x10b3b,(%esp)
    1c33:	e8 d0 e0 00 00       	call   fd08 <printf>
    1c38:	c7 44 24 08 46 00 00 	movl   $0x46,0x8(%esp)
    1c3f:	00 
    1c40:	8d 85 4c ff ff ff    	lea    -0xb4(%ebp),%eax
    1c46:	89 44 24 04          	mov    %eax,0x4(%esp)
    1c4a:	c7 04 24 00 00 00 00 	movl   $0x0,(%esp)
    1c51:	e8 5e e8 00 00       	call   104b4 <read>
    1c56:	89 45 d8             	mov    %eax,-0x28(%ebp)
    1c59:	8d 85 4c ff ff ff    	lea    -0xb4(%ebp),%eax
    1c5f:	03 45 d8             	add    -0x28(%ebp),%eax
    1c62:	c6 00 00             	movb   $0x0,(%eax)
    1c65:	c7 45 f4 00 00 00 00 	movl   $0x0,-0xc(%ebp)
    1c6c:	8d 85 4c ff ff ff    	lea    -0xb4(%ebp),%eax
    1c72:	89 45 f0             	mov    %eax,-0x10(%ebp)
    1c75:	c7 45 e8 00 00 00 00 	movl   $0x0,-0x18(%ebp)
    1c7c:	8b 45 f0             	mov    -0x10(%ebp),%eax
    1c7f:	0f b6 00             	movzbl (%eax),%eax
    1c82:	88 45 d7             	mov    %al,-0x29(%ebp)
    1c85:	8b 45 f0             	mov    -0x10(%ebp),%eax
    1c88:	0f b6 00             	movzbl (%eax),%eax
    1c8b:	3c 20                	cmp    $0x20,%al
    1c8d:	74 1d                	je     1cac <shell+0x128>
    1c8f:	8b 45 f0             	mov    -0x10(%ebp),%eax
    1c92:	0f b6 00             	movzbl (%eax),%eax
    1c95:	84 c0                	test   %al,%al
    1c97:	74 13                	je     1cac <shell+0x128>
    1c99:	83 7d e8 00          	cmpl   $0x0,-0x18(%ebp)
    1c9d:	75 0d                	jne    1cac <shell+0x128>
    1c9f:	8b 45 f0             	mov    -0x10(%ebp),%eax
    1ca2:	89 45 ec             	mov    %eax,-0x14(%ebp)
    1ca5:	c7 45 e8 01 00 00 00 	movl   $0x1,-0x18(%ebp)
    1cac:	8b 45 f0             	mov    -0x10(%ebp),%eax
    1caf:	0f b6 00             	movzbl (%eax),%eax
    1cb2:	3c 20                	cmp    $0x20,%al
    1cb4:	74 0a                	je     1cc0 <shell+0x13c>
    1cb6:	8b 45 f0             	mov    -0x10(%ebp),%eax
    1cb9:	0f b6 00             	movzbl (%eax),%eax
    1cbc:	84 c0                	test   %al,%al
    1cbe:	75 24                	jne    1ce4 <shell+0x160>
    1cc0:	83 7d e8 00          	cmpl   $0x0,-0x18(%ebp)
    1cc4:	74 1e                	je     1ce4 <shell+0x160>
    1cc6:	c7 45 e8 00 00 00 00 	movl   $0x0,-0x18(%ebp)
    1ccd:	8b 45 f4             	mov    -0xc(%ebp),%eax
    1cd0:	8b 55 ec             	mov    -0x14(%ebp),%edx
    1cd3:	89 94 85 48 ef ff ff 	mov    %edx,-0x10b8(%ebp,%eax,4)
    1cda:	83 45 f4 01          	addl   $0x1,-0xc(%ebp)
    1cde:	8b 45 f0             	mov    -0x10(%ebp),%eax
    1ce1:	c6 00 00             	movb   $0x0,(%eax)
    1ce4:	83 45 f0 01          	addl   $0x1,-0x10(%ebp)
    1ce8:	80 7d d7 00          	cmpb   $0x0,-0x29(%ebp)
    1cec:	75 8e                	jne    1c7c <shell+0xf8>
    1cee:	8b 45 f4             	mov    -0xc(%ebp),%eax
    1cf1:	c7 84 85 48 ef ff ff 	movl   $0x0,-0x10b8(%ebp,%eax,4)
    1cf8:	00 00 00 00 
    1cfc:	8b 85 48 ef ff ff    	mov    -0x10b8(%ebp),%eax
    1d02:	c7 44 24 04 02 00 00 	movl   $0x2,0x4(%esp)
    1d09:	00 
    1d0a:	89 04 24             	mov    %eax,(%esp)
    1d0d:	e8 be e6 00 00       	call   103d0 <open>
    1d12:	89 45 d0             	mov    %eax,-0x30(%ebp)
    1d15:	83 7d d0 ff          	cmpl   $0xffffffff,-0x30(%ebp)
    1d19:	75 20                	jne    1d3b <shell+0x1b7>
    1d1b:	0f b6 85 4c ff ff ff 	movzbl -0xb4(%ebp),%eax
    1d22:	84 c0                	test   %al,%al
    1d24:	0f 84 f7 fe ff ff    	je     1c21 <shell+0x9d>
    1d2a:	c7 04 24 46 0b 01 00 	movl   $0x10b46,(%esp)
    1d31:	e8 d2 df 00 00       	call   fd08 <printf>
    1d36:	e9 e7 fe ff ff       	jmp    1c22 <shell+0x9e>
    1d3b:	8b 45 d0             	mov    -0x30(%ebp),%eax
    1d3e:	89 04 24             	mov    %eax,(%esp)
    1d41:	e8 ee e7 00 00       	call   10534 <close>
    1d46:	e8 2d e9 00 00       	call   10678 <fork>
    1d4b:	89 45 cc             	mov    %eax,-0x34(%ebp)
    1d4e:	83 7d cc 00          	cmpl   $0x0,-0x34(%ebp)
    1d52:	74 13                	je     1d67 <shell+0x1e3>
    1d54:	8d 85 48 ff ff ff    	lea    -0xb8(%ebp),%eax
    1d5a:	89 04 24             	mov    %eax,(%esp)
    1d5d:	e8 9a e9 00 00       	call   106fc <wait>
    1d62:	e9 bb fe ff ff       	jmp    1c22 <shell+0x9e>
    1d67:	8b 85 48 ef ff ff    	mov    -0x10b8(%ebp),%eax
    1d6d:	8d 95 48 ef ff ff    	lea    -0x10b8(%ebp),%edx
    1d73:	89 54 24 04          	mov    %edx,0x4(%esp)
    1d77:	89 04 24             	mov    %eax,(%esp)
    1d7a:	e8 62 ea 00 00       	call   107e1 <execv>
    1d7f:	e9 9e fe ff ff       	jmp    1c22 <shell+0x9e>

00001d84 <Init>:
    1d84:	55                   	push   %ebp
    1d85:	89 e5                	mov    %esp,%ebp
    1d87:	53                   	push   %ebx
    1d88:	83 ec 34             	sub    $0x34,%esp
    1d8b:	c7 44 24 04 02 00 00 	movl   $0x2,0x4(%esp)
    1d92:	00 
    1d93:	c7 04 24 60 0b 01 00 	movl   $0x10b60,(%esp)
    1d9a:	e8 31 e6 00 00       	call   103d0 <open>
    1d9f:	89 45 f0             	mov    %eax,-0x10(%ebp)
    1da2:	83 7d f0 00          	cmpl   $0x0,-0x10(%ebp)
    1da6:	74 24                	je     1dcc <Init+0x48>
    1da8:	c7 44 24 0c 61 01 00 	movl   $0x161,0xc(%esp)
    1daf:	00 
    1db0:	c7 44 24 08 5e 0a 01 	movl   $0x10a5e,0x8(%esp)
    1db7:	00 
    1db8:	c7 44 24 04 5e 0a 01 	movl   $0x10a5e,0x4(%esp)
    1dbf:	00 
    1dc0:	c7 04 24 1e 0b 01 00 	movl   $0x10b1e,(%esp)
    1dc7:	e8 fe e5 00 00       	call   103ca <assertion_failure>
    1dcc:	c7 44 24 04 02 00 00 	movl   $0x2,0x4(%esp)
    1dd3:	00 
    1dd4:	c7 04 24 60 0b 01 00 	movl   $0x10b60,(%esp)
    1ddb:	e8 f0 e5 00 00       	call   103d0 <open>
    1de0:	89 45 ec             	mov    %eax,-0x14(%ebp)
    1de3:	83 7d ec 01          	cmpl   $0x1,-0x14(%ebp)
    1de7:	74 24                	je     1e0d <Init+0x89>
    1de9:	c7 44 24 0c 63 01 00 	movl   $0x163,0xc(%esp)
    1df0:	00 
    1df1:	c7 44 24 08 5e 0a 01 	movl   $0x10a5e,0x8(%esp)
    1df8:	00 
    1df9:	c7 44 24 04 5e 0a 01 	movl   $0x10a5e,0x4(%esp)
    1e00:	00 
    1e01:	c7 04 24 2c 0b 01 00 	movl   $0x10b2c,(%esp)
    1e08:	e8 bd e5 00 00       	call   103ca <assertion_failure>
    1e0d:	c7 04 24 6a 0b 01 00 	movl   $0x10b6a,(%esp)
    1e14:	e8 95 fa ff ff       	call   18ae <untar>
    1e19:	e8 58 fa ff ff       	call   1876 <get_ticks>
    1e1e:	89 c1                	mov    %eax,%ecx
    1e20:	ba 1f 85 eb 51       	mov    $0x51eb851f,%edx
    1e25:	89 c8                	mov    %ecx,%eax
    1e27:	f7 ea                	imul   %edx
    1e29:	c1 fa 05             	sar    $0x5,%edx
    1e2c:	89 c8                	mov    %ecx,%eax
    1e2e:	c1 f8 1f             	sar    $0x1f,%eax
    1e31:	89 d3                	mov    %edx,%ebx
    1e33:	29 c3                	sub    %eax,%ebx
    1e35:	6b c3 64             	imul   $0x64,%ebx,%eax
    1e38:	89 cb                	mov    %ecx,%ebx
    1e3a:	29 c3                	sub    %eax,%ebx
    1e3c:	e8 35 fa ff ff       	call   1876 <get_ticks>
    1e41:	89 c1                	mov    %eax,%ecx
    1e43:	ba 1f 85 eb 51       	mov    $0x51eb851f,%edx
    1e48:	89 c8                	mov    %ecx,%eax
    1e4a:	f7 ea                	imul   %edx
    1e4c:	c1 fa 05             	sar    $0x5,%edx
    1e4f:	89 c8                	mov    %ecx,%eax
    1e51:	c1 f8 1f             	sar    $0x1f,%eax
    1e54:	89 d1                	mov    %edx,%ecx
    1e56:	29 c1                	sub    %eax,%ecx
    1e58:	89 c8                	mov    %ecx,%eax
    1e5a:	89 5c 24 08          	mov    %ebx,0x8(%esp)
    1e5e:	89 44 24 04          	mov    %eax,0x4(%esp)
    1e62:	c7 04 24 73 0b 01 00 	movl   $0x10b73,(%esp)
    1e69:	e8 9a de 00 00       	call   fd08 <printf>
    1e6e:	c7 44 24 04 87 0b 01 	movl   $0x10b87,0x4(%esp)
    1e75:	00 
    1e76:	c7 04 24 8f 0b 01 00 	movl   $0x10b8f,(%esp)
    1e7d:	e8 86 de 00 00       	call   fd08 <printf>
    1e82:	c7 04 24 a4 0b 01 00 	movl   $0x10ba4,(%esp)
    1e89:	e8 7a de 00 00       	call   fd08 <printf>
    1e8e:	c7 45 dc 60 0b 01 00 	movl   $0x10b60,-0x24(%ebp)
    1e95:	c7 45 e0 b8 0b 01 00 	movl   $0x10bb8,-0x20(%ebp)
    1e9c:	c7 45 e4 c2 0b 01 00 	movl   $0x10bc2,-0x1c(%ebp)
    1ea3:	c7 04 24 cc 0b 01 00 	movl   $0x10bcc,(%esp)
    1eaa:	e8 59 de 00 00       	call   fd08 <printf>
    1eaf:	c7 45 f4 00 00 00 00 	movl   $0x0,-0xc(%ebp)
    1eb6:	eb 5b                	jmp    1f13 <Init+0x18f>
    1eb8:	e8 bb e7 00 00       	call   10678 <fork>
    1ebd:	89 45 e8             	mov    %eax,-0x18(%ebp)
    1ec0:	83 7d e8 00          	cmpl   $0x0,-0x18(%ebp)
    1ec4:	75 49                	jne    1f0f <Init+0x18b>
    1ec6:	8b 45 f0             	mov    -0x10(%ebp),%eax
    1ec9:	89 04 24             	mov    %eax,(%esp)
    1ecc:	e8 63 e6 00 00       	call   10534 <close>
    1ed1:	8b 45 ec             	mov    -0x14(%ebp),%eax
    1ed4:	89 04 24             	mov    %eax,(%esp)
    1ed7:	e8 58 e6 00 00       	call   10534 <close>
    1edc:	8b 45 f4             	mov    -0xc(%ebp),%eax
    1edf:	8b 44 85 dc          	mov    -0x24(%ebp,%eax,4),%eax
    1ee3:	89 04 24             	mov    %eax,(%esp)
    1ee6:	e8 99 fc ff ff       	call   1b84 <shell>
    1eeb:	c7 44 24 0c 8f 01 00 	movl   $0x18f,0xc(%esp)
    1ef2:	00 
    1ef3:	c7 44 24 08 5e 0a 01 	movl   $0x10a5e,0x8(%esp)
    1efa:	00 
    1efb:	c7 44 24 04 5e 0a 01 	movl   $0x10a5e,0x4(%esp)
    1f02:	00 
    1f03:	c7 04 24 ce 0b 01 00 	movl   $0x10bce,(%esp)
    1f0a:	e8 bb e4 00 00       	call   103ca <assertion_failure>
    1f0f:	83 45 f4 01          	addl   $0x1,-0xc(%ebp)
    1f13:	8b 45 f4             	mov    -0xc(%ebp),%eax
    1f16:	83 f8 02             	cmp    $0x2,%eax
    1f19:	76 9d                	jbe    1eb8 <Init+0x134>
    1f1b:	8d 45 d8             	lea    -0x28(%ebp),%eax
    1f1e:	89 04 24             	mov    %eax,(%esp)
    1f21:	e8 d6 e7 00 00       	call   106fc <wait>
    1f26:	eb f3                	jmp    1f1b <Init+0x197>

00001f28 <TestA>:
    1f28:	55                   	push   %ebp
    1f29:	89 e5                	mov    %esp,%ebp
    1f2b:	eb fe                	jmp    1f2b <TestA+0x3>

00001f2d <TestB>:
    1f2d:	55                   	push   %ebp
    1f2e:	89 e5                	mov    %esp,%ebp
    1f30:	eb fe                	jmp    1f30 <TestB+0x3>

00001f32 <TestC>:
    1f32:	55                   	push   %ebp
    1f33:	89 e5                	mov    %esp,%ebp
    1f35:	eb fe                	jmp    1f35 <TestC+0x3>

00001f37 <panic>:
    1f37:	55                   	push   %ebp
    1f38:	89 e5                	mov    %esp,%ebp
    1f3a:	81 ec 28 01 00 00    	sub    $0x128,%esp
    1f40:	8d 45 08             	lea    0x8(%ebp),%eax
    1f43:	83 c0 04             	add    $0x4,%eax
    1f46:	89 45 f4             	mov    %eax,-0xc(%ebp)
    1f49:	8b 45 08             	mov    0x8(%ebp),%eax
    1f4c:	8b 55 f4             	mov    -0xc(%ebp),%edx
    1f4f:	89 54 24 08          	mov    %edx,0x8(%esp)
    1f53:	89 44 24 04          	mov    %eax,0x4(%esp)
    1f57:	8d 85 f0 fe ff ff    	lea    -0x110(%ebp),%eax
    1f5d:	89 04 24             	mov    %eax,(%esp)
    1f60:	e8 d6 de 00 00       	call   fe3b <vsprintf>
    1f65:	89 45 f0             	mov    %eax,-0x10(%ebp)
    1f68:	8d 85 f0 fe ff ff    	lea    -0x110(%ebp),%eax
    1f6e:	89 44 24 04          	mov    %eax,0x4(%esp)
    1f72:	c7 04 24 d0 0b 01 00 	movl   $0x10bd0,(%esp)
    1f79:	e8 0c de 00 00       	call   fd8a <printl>
    1f7e:	0f 0b                	ud2    
    1f80:	c9                   	leave  
    1f81:	c3                   	ret    
    1f82:	90                   	nop
    1f83:	90                   	nop

00001f84 <clock_handler>:
    1f84:	55                   	push   %ebp
    1f85:	89 e5                	mov    %esp,%ebp
    1f87:	83 ec 18             	sub    $0x18,%esp
    1f8a:	a1 e0 01 05 00       	mov    0x501e0,%eax
    1f8f:	83 c0 01             	add    $0x1,%eax
    1f92:	a3 e0 01 05 00       	mov    %eax,0x501e0
    1f97:	a1 e0 01 05 00       	mov    0x501e0,%eax
    1f9c:	3d cc ab ff 7f       	cmp    $0x7fffabcc,%eax
    1fa1:	7e 0a                	jle    1fad <clock_handler+0x29>
    1fa3:	c7 05 e0 01 05 00 00 	movl   $0x0,0x501e0
    1faa:	00 00 00 
    1fad:	a1 64 ed 04 00       	mov    0x4ed64,%eax
    1fb2:	8b 40 5a             	mov    0x5a(%eax),%eax
    1fb5:	85 c0                	test   %eax,%eax
    1fb7:	74 0e                	je     1fc7 <clock_handler+0x43>
    1fb9:	a1 64 ed 04 00       	mov    0x4ed64,%eax
    1fbe:	8b 50 5a             	mov    0x5a(%eax),%edx
    1fc1:	83 ea 01             	sub    $0x1,%edx
    1fc4:	89 50 5a             	mov    %edx,0x5a(%eax)
    1fc7:	a1 b0 ed 04 00       	mov    0x4edb0,%eax
    1fcc:	85 c0                	test   %eax,%eax
    1fce:	74 0c                	je     1fdc <clock_handler+0x58>
    1fd0:	c7 04 24 00 00 00 00 	movl   $0x0,(%esp)
    1fd7:	e8 97 25 00 00       	call   4573 <inform_int>
    1fdc:	a1 88 d6 04 00       	mov    0x4d688,%eax
    1fe1:	85 c0                	test   %eax,%eax
    1fe3:	75 13                	jne    1ff8 <clock_handler+0x74>
    1fe5:	a1 64 ed 04 00       	mov    0x4ed64,%eax
    1fea:	8b 40 5a             	mov    0x5a(%eax),%eax
    1fed:	85 c0                	test   %eax,%eax
    1fef:	7f 0a                	jg     1ffb <clock_handler+0x77>
    1ff1:	e8 92 11 00 00       	call   3188 <schedule>
    1ff6:	eb 04                	jmp    1ffc <clock_handler+0x78>
    1ff8:	90                   	nop
    1ff9:	eb 01                	jmp    1ffc <clock_handler+0x78>
    1ffb:	90                   	nop
    1ffc:	c9                   	leave  
    1ffd:	c3                   	ret    

00001ffe <milli_delay>:
    1ffe:	55                   	push   %ebp
    1fff:	89 e5                	mov    %esp,%ebp
    2001:	83 ec 18             	sub    $0x18,%esp
    2004:	e8 6d f8 ff ff       	call   1876 <get_ticks>
    2009:	89 45 f4             	mov    %eax,-0xc(%ebp)
    200c:	90                   	nop
    200d:	e8 64 f8 ff ff       	call   1876 <get_ticks>
    2012:	2b 45 f4             	sub    -0xc(%ebp),%eax
    2015:	69 c8 e8 03 00 00    	imul   $0x3e8,%eax,%ecx
    201b:	ba 1f 85 eb 51       	mov    $0x51eb851f,%edx
    2020:	89 c8                	mov    %ecx,%eax
    2022:	f7 ea                	imul   %edx
    2024:	c1 fa 05             	sar    $0x5,%edx
    2027:	89 c8                	mov    %ecx,%eax
    2029:	c1 f8 1f             	sar    $0x1f,%eax
    202c:	89 d1                	mov    %edx,%ecx
    202e:	29 c1                	sub    %eax,%ecx
    2030:	89 c8                	mov    %ecx,%eax
    2032:	3b 45 08             	cmp    0x8(%ebp),%eax
    2035:	7c d6                	jl     200d <milli_delay+0xf>
    2037:	c9                   	leave  
    2038:	c3                   	ret    

00002039 <init_clock>:
    2039:	55                   	push   %ebp
    203a:	89 e5                	mov    %esp,%ebp
    203c:	83 ec 18             	sub    $0x18,%esp
    203f:	c7 44 24 04 34 00 00 	movl   $0x34,0x4(%esp)
    2046:	00 
    2047:	c7 04 24 43 00 00 00 	movl   $0x43,(%esp)
    204e:	e8 2c 2f 00 00       	call   4f7f <out_byte>
    2053:	c7 44 24 04 9b 00 00 	movl   $0x9b,0x4(%esp)
    205a:	00 
    205b:	c7 04 24 40 00 00 00 	movl   $0x40,(%esp)
    2062:	e8 18 2f 00 00       	call   4f7f <out_byte>
    2067:	c7 44 24 04 2e 00 00 	movl   $0x2e,0x4(%esp)
    206e:	00 
    206f:	c7 04 24 40 00 00 00 	movl   $0x40,(%esp)
    2076:	e8 04 2f 00 00       	call   4f7f <out_byte>
    207b:	c7 44 24 04 84 1f 00 	movl   $0x1f84,0x4(%esp)
    2082:	00 
    2083:	c7 04 24 00 00 00 00 	movl   $0x0,(%esp)
    208a:	e8 2d 01 00 00       	call   21bc <put_irq_handler>
    208f:	c7 04 24 00 00 00 00 	movl   $0x0,(%esp)
    2096:	e8 55 2f 00 00       	call   4ff0 <enable_irq>
    209b:	c9                   	leave  
    209c:	c3                   	ret    
    209d:	90                   	nop
    209e:	90                   	nop
    209f:	90                   	nop

000020a0 <init_8259A>:
    20a0:	55                   	push   %ebp
    20a1:	89 e5                	mov    %esp,%ebp
    20a3:	83 ec 28             	sub    $0x28,%esp
    20a6:	c7 44 24 04 11 00 00 	movl   $0x11,0x4(%esp)
    20ad:	00 
    20ae:	c7 04 24 20 00 00 00 	movl   $0x20,(%esp)
    20b5:	e8 c5 2e 00 00       	call   4f7f <out_byte>
    20ba:	c7 44 24 04 11 00 00 	movl   $0x11,0x4(%esp)
    20c1:	00 
    20c2:	c7 04 24 a0 00 00 00 	movl   $0xa0,(%esp)
    20c9:	e8 b1 2e 00 00       	call   4f7f <out_byte>
    20ce:	c7 44 24 04 20 00 00 	movl   $0x20,0x4(%esp)
    20d5:	00 
    20d6:	c7 04 24 21 00 00 00 	movl   $0x21,(%esp)
    20dd:	e8 9d 2e 00 00       	call   4f7f <out_byte>
    20e2:	c7 44 24 04 28 00 00 	movl   $0x28,0x4(%esp)
    20e9:	00 
    20ea:	c7 04 24 a1 00 00 00 	movl   $0xa1,(%esp)
    20f1:	e8 89 2e 00 00       	call   4f7f <out_byte>
    20f6:	c7 44 24 04 04 00 00 	movl   $0x4,0x4(%esp)
    20fd:	00 
    20fe:	c7 04 24 21 00 00 00 	movl   $0x21,(%esp)
    2105:	e8 75 2e 00 00       	call   4f7f <out_byte>
    210a:	c7 44 24 04 02 00 00 	movl   $0x2,0x4(%esp)
    2111:	00 
    2112:	c7 04 24 a1 00 00 00 	movl   $0xa1,(%esp)
    2119:	e8 61 2e 00 00       	call   4f7f <out_byte>
    211e:	c7 44 24 04 01 00 00 	movl   $0x1,0x4(%esp)
    2125:	00 
    2126:	c7 04 24 21 00 00 00 	movl   $0x21,(%esp)
    212d:	e8 4d 2e 00 00       	call   4f7f <out_byte>
    2132:	c7 44 24 04 01 00 00 	movl   $0x1,0x4(%esp)
    2139:	00 
    213a:	c7 04 24 a1 00 00 00 	movl   $0xa1,(%esp)
    2141:	e8 39 2e 00 00       	call   4f7f <out_byte>
    2146:	c7 44 24 04 ff 00 00 	movl   $0xff,0x4(%esp)
    214d:	00 
    214e:	c7 04 24 21 00 00 00 	movl   $0x21,(%esp)
    2155:	e8 25 2e 00 00       	call   4f7f <out_byte>
    215a:	c7 44 24 04 ff 00 00 	movl   $0xff,0x4(%esp)
    2161:	00 
    2162:	c7 04 24 a1 00 00 00 	movl   $0xa1,(%esp)
    2169:	e8 11 2e 00 00       	call   4f7f <out_byte>
    216e:	c7 45 f4 00 00 00 00 	movl   $0x0,-0xc(%ebp)
    2175:	eb 12                	jmp    2189 <init_8259A+0xe9>
    2177:	8b 45 f4             	mov    -0xc(%ebp),%eax
    217a:	c7 04 85 80 0c 05 00 	movl   $0x2191,0x50c80(,%eax,4)
    2181:	91 21 00 00 
    2185:	83 45 f4 01          	addl   $0x1,-0xc(%ebp)
    2189:	83 7d f4 0f          	cmpl   $0xf,-0xc(%ebp)
    218d:	7e e8                	jle    2177 <init_8259A+0xd7>
    218f:	c9                   	leave  
    2190:	c3                   	ret    

00002191 <spurious_irq>:
    2191:	55                   	push   %ebp
    2192:	89 e5                	mov    %esp,%ebp
    2194:	83 ec 18             	sub    $0x18,%esp
    2197:	c7 04 24 e1 0b 01 00 	movl   $0x10be1,(%esp)
    219e:	e8 4d 2d 00 00       	call   4ef0 <disp_str>
    21a3:	8b 45 08             	mov    0x8(%ebp),%eax
    21a6:	89 04 24             	mov    %eax,(%esp)
    21a9:	e8 f3 31 00 00       	call   53a1 <disp_int>
    21ae:	c7 04 24 f0 0b 01 00 	movl   $0x10bf0,(%esp)
    21b5:	e8 36 2d 00 00       	call   4ef0 <disp_str>
    21ba:	c9                   	leave  
    21bb:	c3                   	ret    

000021bc <put_irq_handler>:
    21bc:	55                   	push   %ebp
    21bd:	89 e5                	mov    %esp,%ebp
    21bf:	83 ec 18             	sub    $0x18,%esp
    21c2:	8b 45 08             	mov    0x8(%ebp),%eax
    21c5:	89 04 24             	mov    %eax,(%esp)
    21c8:	e8 ee 2d 00 00       	call   4fbb <disable_irq>
    21cd:	8b 45 08             	mov    0x8(%ebp),%eax
    21d0:	8b 55 0c             	mov    0xc(%ebp),%edx
    21d3:	89 14 85 80 0c 05 00 	mov    %edx,0x50c80(,%eax,4)
    21da:	c9                   	leave  
    21db:	c3                   	ret    

000021dc <init_prot>:
    21dc:	55                   	push   %ebp
    21dd:	89 e5                	mov    %esp,%ebp
    21df:	83 ec 28             	sub    $0x28,%esp
    21e2:	e8 b9 fe ff ff       	call   20a0 <init_8259A>
    21e7:	c7 44 24 0c 00 00 00 	movl   $0x0,0xc(%esp)
    21ee:	00 
    21ef:	c7 44 24 08 37 13 00 	movl   $0x1337,0x8(%esp)
    21f6:	00 
    21f7:	c7 44 24 04 8e 00 00 	movl   $0x8e,0x4(%esp)
    21fe:	00 
    21ff:	c7 04 24 00 00 00 00 	movl   $0x0,(%esp)
    2206:	e8 bc 05 00 00       	call   27c7 <init_idt_desc>
    220b:	c7 44 24 0c 00 00 00 	movl   $0x0,0xc(%esp)
    2212:	00 
    2213:	c7 44 24 08 46 13 00 	movl   $0x1346,0x8(%esp)
    221a:	00 
    221b:	c7 44 24 04 8e 00 00 	movl   $0x8e,0x4(%esp)
    2222:	00 
    2223:	c7 04 24 01 00 00 00 	movl   $0x1,(%esp)
    222a:	e8 98 05 00 00       	call   27c7 <init_idt_desc>
    222f:	c7 44 24 0c 00 00 00 	movl   $0x0,0xc(%esp)
    2236:	00 
    2237:	c7 44 24 08 55 13 00 	movl   $0x1355,0x8(%esp)
    223e:	00 
    223f:	c7 44 24 04 8e 00 00 	movl   $0x8e,0x4(%esp)
    2246:	00 
    2247:	c7 04 24 02 00 00 00 	movl   $0x2,(%esp)
    224e:	e8 74 05 00 00       	call   27c7 <init_idt_desc>
    2253:	c7 44 24 0c 03 00 00 	movl   $0x3,0xc(%esp)
    225a:	00 
    225b:	c7 44 24 08 64 13 00 	movl   $0x1364,0x8(%esp)
    2262:	00 
    2263:	c7 44 24 04 8e 00 00 	movl   $0x8e,0x4(%esp)
    226a:	00 
    226b:	c7 04 24 03 00 00 00 	movl   $0x3,(%esp)
    2272:	e8 50 05 00 00       	call   27c7 <init_idt_desc>
    2277:	c7 44 24 0c 03 00 00 	movl   $0x3,0xc(%esp)
    227e:	00 
    227f:	c7 44 24 08 73 13 00 	movl   $0x1373,0x8(%esp)
    2286:	00 
    2287:	c7 44 24 04 8e 00 00 	movl   $0x8e,0x4(%esp)
    228e:	00 
    228f:	c7 04 24 04 00 00 00 	movl   $0x4,(%esp)
    2296:	e8 2c 05 00 00       	call   27c7 <init_idt_desc>
    229b:	c7 44 24 0c 00 00 00 	movl   $0x0,0xc(%esp)
    22a2:	00 
    22a3:	c7 44 24 08 82 13 00 	movl   $0x1382,0x8(%esp)
    22aa:	00 
    22ab:	c7 44 24 04 8e 00 00 	movl   $0x8e,0x4(%esp)
    22b2:	00 
    22b3:	c7 04 24 05 00 00 00 	movl   $0x5,(%esp)
    22ba:	e8 08 05 00 00       	call   27c7 <init_idt_desc>
    22bf:	c7 44 24 0c 00 00 00 	movl   $0x0,0xc(%esp)
    22c6:	00 
    22c7:	c7 44 24 08 91 13 00 	movl   $0x1391,0x8(%esp)
    22ce:	00 
    22cf:	c7 44 24 04 8e 00 00 	movl   $0x8e,0x4(%esp)
    22d6:	00 
    22d7:	c7 04 24 06 00 00 00 	movl   $0x6,(%esp)
    22de:	e8 e4 04 00 00       	call   27c7 <init_idt_desc>
    22e3:	c7 44 24 0c 00 00 00 	movl   $0x0,0xc(%esp)
    22ea:	00 
    22eb:	c7 44 24 08 a0 13 00 	movl   $0x13a0,0x8(%esp)
    22f2:	00 
    22f3:	c7 44 24 04 8e 00 00 	movl   $0x8e,0x4(%esp)
    22fa:	00 
    22fb:	c7 04 24 07 00 00 00 	movl   $0x7,(%esp)
    2302:	e8 c0 04 00 00       	call   27c7 <init_idt_desc>
    2307:	c7 44 24 0c 00 00 00 	movl   $0x0,0xc(%esp)
    230e:	00 
    230f:	c7 44 24 08 af 13 00 	movl   $0x13af,0x8(%esp)
    2316:	00 
    2317:	c7 44 24 04 8e 00 00 	movl   $0x8e,0x4(%esp)
    231e:	00 
    231f:	c7 04 24 08 00 00 00 	movl   $0x8,(%esp)
    2326:	e8 9c 04 00 00       	call   27c7 <init_idt_desc>
    232b:	c7 44 24 0c 00 00 00 	movl   $0x0,0xc(%esp)
    2332:	00 
    2333:	c7 44 24 08 b9 13 00 	movl   $0x13b9,0x8(%esp)
    233a:	00 
    233b:	c7 44 24 04 8e 00 00 	movl   $0x8e,0x4(%esp)
    2342:	00 
    2343:	c7 04 24 09 00 00 00 	movl   $0x9,(%esp)
    234a:	e8 78 04 00 00       	call   27c7 <init_idt_desc>
    234f:	c7 44 24 0c 00 00 00 	movl   $0x0,0xc(%esp)
    2356:	00 
    2357:	c7 44 24 08 c8 13 00 	movl   $0x13c8,0x8(%esp)
    235e:	00 
    235f:	c7 44 24 04 8e 00 00 	movl   $0x8e,0x4(%esp)
    2366:	00 
    2367:	c7 04 24 0a 00 00 00 	movl   $0xa,(%esp)
    236e:	e8 54 04 00 00       	call   27c7 <init_idt_desc>
    2373:	c7 44 24 0c 00 00 00 	movl   $0x0,0xc(%esp)
    237a:	00 
    237b:	c7 44 24 08 d2 13 00 	movl   $0x13d2,0x8(%esp)
    2382:	00 
    2383:	c7 44 24 04 8e 00 00 	movl   $0x8e,0x4(%esp)
    238a:	00 
    238b:	c7 04 24 0b 00 00 00 	movl   $0xb,(%esp)
    2392:	e8 30 04 00 00       	call   27c7 <init_idt_desc>
    2397:	c7 44 24 0c 00 00 00 	movl   $0x0,0xc(%esp)
    239e:	00 
    239f:	c7 44 24 08 dc 13 00 	movl   $0x13dc,0x8(%esp)
    23a6:	00 
    23a7:	c7 44 24 04 8e 00 00 	movl   $0x8e,0x4(%esp)
    23ae:	00 
    23af:	c7 04 24 0c 00 00 00 	movl   $0xc,(%esp)
    23b6:	e8 0c 04 00 00       	call   27c7 <init_idt_desc>
    23bb:	c7 44 24 0c 00 00 00 	movl   $0x0,0xc(%esp)
    23c2:	00 
    23c3:	c7 44 24 08 e6 13 00 	movl   $0x13e6,0x8(%esp)
    23ca:	00 
    23cb:	c7 44 24 04 8e 00 00 	movl   $0x8e,0x4(%esp)
    23d2:	00 
    23d3:	c7 04 24 0d 00 00 00 	movl   $0xd,(%esp)
    23da:	e8 e8 03 00 00       	call   27c7 <init_idt_desc>
    23df:	c7 44 24 0c 00 00 00 	movl   $0x0,0xc(%esp)
    23e6:	00 
    23e7:	c7 44 24 08 e0 c1 00 	movl   $0xc1e0,0x8(%esp)
    23ee:	00 
    23ef:	c7 44 24 04 8e 00 00 	movl   $0x8e,0x4(%esp)
    23f6:	00 
    23f7:	c7 04 24 0e 00 00 00 	movl   $0xe,(%esp)
    23fe:	e8 c4 03 00 00       	call   27c7 <init_idt_desc>
    2403:	c7 44 24 0c 00 00 00 	movl   $0x0,0xc(%esp)
    240a:	00 
    240b:	c7 44 24 08 f0 13 00 	movl   $0x13f0,0x8(%esp)
    2412:	00 
    2413:	c7 44 24 04 8e 00 00 	movl   $0x8e,0x4(%esp)
    241a:	00 
    241b:	c7 04 24 10 00 00 00 	movl   $0x10,(%esp)
    2422:	e8 a0 03 00 00       	call   27c7 <init_idt_desc>
    2427:	c7 44 24 0c 00 00 00 	movl   $0x0,0xc(%esp)
    242e:	00 
    242f:	c7 44 24 08 40 10 00 	movl   $0x1040,0x8(%esp)
    2436:	00 
    2437:	c7 44 24 04 8e 00 00 	movl   $0x8e,0x4(%esp)
    243e:	00 
    243f:	c7 04 24 20 00 00 00 	movl   $0x20,(%esp)
    2446:	e8 7c 03 00 00       	call   27c7 <init_idt_desc>
    244b:	c7 44 24 0c 00 00 00 	movl   $0x0,0xc(%esp)
    2452:	00 
    2453:	c7 44 24 08 70 10 00 	movl   $0x1070,0x8(%esp)
    245a:	00 
    245b:	c7 44 24 04 8e 00 00 	movl   $0x8e,0x4(%esp)
    2462:	00 
    2463:	c7 04 24 21 00 00 00 	movl   $0x21,(%esp)
    246a:	e8 58 03 00 00       	call   27c7 <init_idt_desc>
    246f:	c7 44 24 0c 00 00 00 	movl   $0x0,0xc(%esp)
    2476:	00 
    2477:	c7 44 24 08 a0 10 00 	movl   $0x10a0,0x8(%esp)
    247e:	00 
    247f:	c7 44 24 04 8e 00 00 	movl   $0x8e,0x4(%esp)
    2486:	00 
    2487:	c7 04 24 22 00 00 00 	movl   $0x22,(%esp)
    248e:	e8 34 03 00 00       	call   27c7 <init_idt_desc>
    2493:	c7 44 24 0c 00 00 00 	movl   $0x0,0xc(%esp)
    249a:	00 
    249b:	c7 44 24 08 d0 10 00 	movl   $0x10d0,0x8(%esp)
    24a2:	00 
    24a3:	c7 44 24 04 8e 00 00 	movl   $0x8e,0x4(%esp)
    24aa:	00 
    24ab:	c7 04 24 23 00 00 00 	movl   $0x23,(%esp)
    24b2:	e8 10 03 00 00       	call   27c7 <init_idt_desc>
    24b7:	c7 44 24 0c 00 00 00 	movl   $0x0,0xc(%esp)
    24be:	00 
    24bf:	c7 44 24 08 00 11 00 	movl   $0x1100,0x8(%esp)
    24c6:	00 
    24c7:	c7 44 24 04 8e 00 00 	movl   $0x8e,0x4(%esp)
    24ce:	00 
    24cf:	c7 04 24 24 00 00 00 	movl   $0x24,(%esp)
    24d6:	e8 ec 02 00 00       	call   27c7 <init_idt_desc>
    24db:	c7 44 24 0c 00 00 00 	movl   $0x0,0xc(%esp)
    24e2:	00 
    24e3:	c7 44 24 08 30 11 00 	movl   $0x1130,0x8(%esp)
    24ea:	00 
    24eb:	c7 44 24 04 8e 00 00 	movl   $0x8e,0x4(%esp)
    24f2:	00 
    24f3:	c7 04 24 25 00 00 00 	movl   $0x25,(%esp)
    24fa:	e8 c8 02 00 00       	call   27c7 <init_idt_desc>
    24ff:	c7 44 24 0c 00 00 00 	movl   $0x0,0xc(%esp)
    2506:	00 
    2507:	c7 44 24 08 60 11 00 	movl   $0x1160,0x8(%esp)
    250e:	00 
    250f:	c7 44 24 04 8e 00 00 	movl   $0x8e,0x4(%esp)
    2516:	00 
    2517:	c7 04 24 26 00 00 00 	movl   $0x26,(%esp)
    251e:	e8 a4 02 00 00       	call   27c7 <init_idt_desc>
    2523:	c7 44 24 0c 00 00 00 	movl   $0x0,0xc(%esp)
    252a:	00 
    252b:	c7 44 24 08 90 11 00 	movl   $0x1190,0x8(%esp)
    2532:	00 
    2533:	c7 44 24 04 8e 00 00 	movl   $0x8e,0x4(%esp)
    253a:	00 
    253b:	c7 04 24 27 00 00 00 	movl   $0x27,(%esp)
    2542:	e8 80 02 00 00       	call   27c7 <init_idt_desc>
    2547:	c7 44 24 0c 00 00 00 	movl   $0x0,0xc(%esp)
    254e:	00 
    254f:	c7 44 24 08 c0 11 00 	movl   $0x11c0,0x8(%esp)
    2556:	00 
    2557:	c7 44 24 04 8e 00 00 	movl   $0x8e,0x4(%esp)
    255e:	00 
    255f:	c7 04 24 28 00 00 00 	movl   $0x28,(%esp)
    2566:	e8 5c 02 00 00       	call   27c7 <init_idt_desc>
    256b:	c7 44 24 0c 00 00 00 	movl   $0x0,0xc(%esp)
    2572:	00 
    2573:	c7 44 24 08 f0 11 00 	movl   $0x11f0,0x8(%esp)
    257a:	00 
    257b:	c7 44 24 04 8e 00 00 	movl   $0x8e,0x4(%esp)
    2582:	00 
    2583:	c7 04 24 29 00 00 00 	movl   $0x29,(%esp)
    258a:	e8 38 02 00 00       	call   27c7 <init_idt_desc>
    258f:	c7 44 24 0c 00 00 00 	movl   $0x0,0xc(%esp)
    2596:	00 
    2597:	c7 44 24 08 20 12 00 	movl   $0x1220,0x8(%esp)
    259e:	00 
    259f:	c7 44 24 04 8e 00 00 	movl   $0x8e,0x4(%esp)
    25a6:	00 
    25a7:	c7 04 24 2a 00 00 00 	movl   $0x2a,(%esp)
    25ae:	e8 14 02 00 00       	call   27c7 <init_idt_desc>
    25b3:	c7 44 24 0c 00 00 00 	movl   $0x0,0xc(%esp)
    25ba:	00 
    25bb:	c7 44 24 08 50 12 00 	movl   $0x1250,0x8(%esp)
    25c2:	00 
    25c3:	c7 44 24 04 8e 00 00 	movl   $0x8e,0x4(%esp)
    25ca:	00 
    25cb:	c7 04 24 2b 00 00 00 	movl   $0x2b,(%esp)
    25d2:	e8 f0 01 00 00       	call   27c7 <init_idt_desc>
    25d7:	c7 44 24 0c 00 00 00 	movl   $0x0,0xc(%esp)
    25de:	00 
    25df:	c7 44 24 08 80 12 00 	movl   $0x1280,0x8(%esp)
    25e6:	00 
    25e7:	c7 44 24 04 8e 00 00 	movl   $0x8e,0x4(%esp)
    25ee:	00 
    25ef:	c7 04 24 2c 00 00 00 	movl   $0x2c,(%esp)
    25f6:	e8 cc 01 00 00       	call   27c7 <init_idt_desc>
    25fb:	c7 44 24 0c 00 00 00 	movl   $0x0,0xc(%esp)
    2602:	00 
    2603:	c7 44 24 08 b0 12 00 	movl   $0x12b0,0x8(%esp)
    260a:	00 
    260b:	c7 44 24 04 8e 00 00 	movl   $0x8e,0x4(%esp)
    2612:	00 
    2613:	c7 04 24 2d 00 00 00 	movl   $0x2d,(%esp)
    261a:	e8 a8 01 00 00       	call   27c7 <init_idt_desc>
    261f:	c7 44 24 0c 00 00 00 	movl   $0x0,0xc(%esp)
    2626:	00 
    2627:	c7 44 24 08 e0 12 00 	movl   $0x12e0,0x8(%esp)
    262e:	00 
    262f:	c7 44 24 04 8e 00 00 	movl   $0x8e,0x4(%esp)
    2636:	00 
    2637:	c7 04 24 2e 00 00 00 	movl   $0x2e,(%esp)
    263e:	e8 84 01 00 00       	call   27c7 <init_idt_desc>
    2643:	c7 44 24 0c 00 00 00 	movl   $0x0,0xc(%esp)
    264a:	00 
    264b:	c7 44 24 08 10 13 00 	movl   $0x1310,0x8(%esp)
    2652:	00 
    2653:	c7 44 24 04 8e 00 00 	movl   $0x8e,0x4(%esp)
    265a:	00 
    265b:	c7 04 24 2f 00 00 00 	movl   $0x2f,(%esp)
    2662:	e8 60 01 00 00       	call   27c7 <init_idt_desc>
    2667:	c7 44 24 0c 03 00 00 	movl   $0x3,0xc(%esp)
    266e:	00 
    266f:	c7 44 24 08 48 14 00 	movl   $0x1448,0x8(%esp)
    2676:	00 
    2677:	c7 44 24 04 8e 00 00 	movl   $0x8e,0x4(%esp)
    267e:	00 
    267f:	c7 04 24 90 00 00 00 	movl   $0x90,(%esp)
    2686:	e8 3c 01 00 00       	call   27c7 <init_idt_desc>
    268b:	c7 44 24 08 68 00 00 	movl   $0x68,0x8(%esp)
    2692:	00 
    2693:	c7 44 24 04 00 00 00 	movl   $0x0,0x4(%esp)
    269a:	00 
    269b:	c7 04 24 a0 e7 04 00 	movl   $0x4e7a0,(%esp)
    26a2:	e8 78 da 00 00       	call   1011f <memset>
    26a7:	c7 05 a8 e7 04 00 10 	movl   $0x10,0x4e7a8
    26ae:	00 00 00 
    26b1:	c7 04 24 10 00 00 00 	movl   $0x10,(%esp)
    26b8:	e8 7a 01 00 00       	call   2837 <seg2linear>
    26bd:	ba a0 e7 04 00       	mov    $0x4e7a0,%edx
    26c2:	01 d0                	add    %edx,%eax
    26c4:	c7 44 24 0c 89 00 00 	movl   $0x89,0xc(%esp)
    26cb:	00 
    26cc:	c7 44 24 08 67 00 00 	movl   $0x67,0x8(%esp)
    26d3:	00 
    26d4:	89 44 24 04          	mov    %eax,0x4(%esp)
    26d8:	c7 04 24 c0 d6 04 00 	movl   $0x4d6c0,(%esp)
    26df:	e8 a2 01 00 00       	call   2886 <init_desc>
    26e4:	66 c7 05 06 e8 04 00 	movw   $0x68,0x4e806
    26eb:	68 00 
    26ed:	c7 45 f4 00 00 00 00 	movl   $0x0,-0xc(%ebp)
    26f4:	e9 c2 00 00 00       	jmp    27bb <init_prot+0x5df>
    26f9:	8b 45 f4             	mov    -0xc(%ebp),%eax
    26fc:	69 c0 36 03 00 00    	imul   $0x336,%eax,%eax
    2702:	05 c0 0c 05 00       	add    $0x50cc0,%eax
    2707:	c7 44 24 08 36 03 00 	movl   $0x336,0x8(%esp)
    270e:	00 
    270f:	c7 44 24 04 00 00 00 	movl   $0x0,0x4(%esp)
    2716:	00 
    2717:	89 04 24             	mov    %eax,(%esp)
    271a:	e8 00 da 00 00       	call   1011f <memset>
    271f:	8b 45 f4             	mov    -0xc(%ebp),%eax
    2722:	c1 e0 03             	shl    $0x3,%eax
    2725:	8d 50 28             	lea    0x28(%eax),%edx
    2728:	8b 45 f4             	mov    -0xc(%ebp),%eax
    272b:	69 c0 36 03 00 00    	imul   $0x336,%eax,%eax
    2731:	05 00 0d 05 00       	add    $0x50d00,%eax
    2736:	66 89 50 08          	mov    %dx,0x8(%eax)
    273a:	8b 45 f4             	mov    -0xc(%ebp),%eax
    273d:	83 c0 05             	add    $0x5,%eax
    2740:	83 f8 7f             	cmp    $0x7f,%eax
    2743:	7e 24                	jle    2769 <init_prot+0x58d>
    2745:	c7 44 24 0c c1 00 00 	movl   $0xc1,0xc(%esp)
    274c:	00 
    274d:	c7 44 24 08 04 0c 01 	movl   $0x10c04,0x8(%esp)
    2754:	00 
    2755:	c7 44 24 04 04 0c 01 	movl   $0x10c04,0x4(%esp)
    275c:	00 
    275d:	c7 04 24 10 0c 01 00 	movl   $0x10c10,(%esp)
    2764:	e8 61 dc 00 00       	call   103ca <assertion_failure>
    2769:	c7 04 24 10 00 00 00 	movl   $0x10,(%esp)
    2770:	e8 c2 00 00 00       	call   2837 <seg2linear>
    2775:	8b 55 f4             	mov    -0xc(%ebp),%edx
    2778:	69 d2 36 03 00 00    	imul   $0x336,%edx,%edx
    277e:	83 c2 40             	add    $0x40,%edx
    2781:	81 c2 c0 0c 05 00    	add    $0x50cc0,%edx
    2787:	83 c2 0a             	add    $0xa,%edx
    278a:	8d 14 10             	lea    (%eax,%edx,1),%edx
    278d:	8b 45 f4             	mov    -0xc(%ebp),%eax
    2790:	83 c0 05             	add    $0x5,%eax
    2793:	c1 e0 03             	shl    $0x3,%eax
    2796:	05 a0 d6 04 00       	add    $0x4d6a0,%eax
    279b:	c7 44 24 0c 82 00 00 	movl   $0x82,0xc(%esp)
    27a2:	00 
    27a3:	c7 44 24 08 0f 00 00 	movl   $0xf,0x8(%esp)
    27aa:	00 
    27ab:	89 54 24 04          	mov    %edx,0x4(%esp)
    27af:	89 04 24             	mov    %eax,(%esp)
    27b2:	e8 cf 00 00 00       	call   2886 <init_desc>
    27b7:	83 45 f4 01          	addl   $0x1,-0xc(%ebp)
    27bb:	83 7d f4 29          	cmpl   $0x29,-0xc(%ebp)
    27bf:	0f 8e 34 ff ff ff    	jle    26f9 <init_prot+0x51d>
    27c5:	c9                   	leave  
    27c6:	c3                   	ret    

000027c7 <init_idt_desc>:
    27c7:	55                   	push   %ebp
    27c8:	89 e5                	mov    %esp,%ebp
    27ca:	83 ec 1c             	sub    $0x1c,%esp
    27cd:	8b 4d 08             	mov    0x8(%ebp),%ecx
    27d0:	8b 55 0c             	mov    0xc(%ebp),%edx
    27d3:	8b 45 14             	mov    0x14(%ebp),%eax
    27d6:	88 4d ec             	mov    %cl,-0x14(%ebp)
    27d9:	88 55 e8             	mov    %dl,-0x18(%ebp)
    27dc:	88 45 e4             	mov    %al,-0x1c(%ebp)
    27df:	0f b6 45 ec          	movzbl -0x14(%ebp),%eax
    27e3:	c1 e0 03             	shl    $0x3,%eax
    27e6:	05 00 02 05 00       	add    $0x50200,%eax
    27eb:	89 45 fc             	mov    %eax,-0x4(%ebp)
    27ee:	8b 45 10             	mov    0x10(%ebp),%eax
    27f1:	89 45 f8             	mov    %eax,-0x8(%ebp)
    27f4:	8b 45 f8             	mov    -0x8(%ebp),%eax
    27f7:	89 c2                	mov    %eax,%edx
    27f9:	8b 45 fc             	mov    -0x4(%ebp),%eax
    27fc:	66 89 10             	mov    %dx,(%eax)
    27ff:	8b 45 fc             	mov    -0x4(%ebp),%eax
    2802:	66 c7 40 02 08 00    	movw   $0x8,0x2(%eax)
    2808:	8b 45 fc             	mov    -0x4(%ebp),%eax
    280b:	c6 40 04 00          	movb   $0x0,0x4(%eax)
    280f:	0f b6 45 e4          	movzbl -0x1c(%ebp),%eax
    2813:	c1 e0 05             	shl    $0x5,%eax
    2816:	89 c2                	mov    %eax,%edx
    2818:	0f b6 45 e8          	movzbl -0x18(%ebp),%eax
    281c:	09 d0                	or     %edx,%eax
    281e:	89 c2                	mov    %eax,%edx
    2820:	8b 45 fc             	mov    -0x4(%ebp),%eax
    2823:	88 50 05             	mov    %dl,0x5(%eax)
    2826:	8b 45 f8             	mov    -0x8(%ebp),%eax
    2829:	c1 e8 10             	shr    $0x10,%eax
    282c:	89 c2                	mov    %eax,%edx
    282e:	8b 45 fc             	mov    -0x4(%ebp),%eax
    2831:	66 89 50 06          	mov    %dx,0x6(%eax)
    2835:	c9                   	leave  
    2836:	c3                   	ret    

00002837 <seg2linear>:
    2837:	55                   	push   %ebp
    2838:	89 e5                	mov    %esp,%ebp
    283a:	83 ec 14             	sub    $0x14,%esp
    283d:	8b 45 08             	mov    0x8(%ebp),%eax
    2840:	66 89 45 ec          	mov    %ax,-0x14(%ebp)
    2844:	0f b7 45 ec          	movzwl -0x14(%ebp),%eax
    2848:	66 c1 e8 03          	shr    $0x3,%ax
    284c:	0f b7 c0             	movzwl %ax,%eax
    284f:	c1 e0 03             	shl    $0x3,%eax
    2852:	05 a0 d6 04 00       	add    $0x4d6a0,%eax
    2857:	89 45 fc             	mov    %eax,-0x4(%ebp)
    285a:	8b 45 fc             	mov    -0x4(%ebp),%eax
    285d:	0f b6 40 07          	movzbl 0x7(%eax),%eax
    2861:	0f b6 c0             	movzbl %al,%eax
    2864:	89 c2                	mov    %eax,%edx
    2866:	c1 e2 18             	shl    $0x18,%edx
    2869:	8b 45 fc             	mov    -0x4(%ebp),%eax
    286c:	0f b6 40 04          	movzbl 0x4(%eax),%eax
    2870:	0f b6 c0             	movzbl %al,%eax
    2873:	c1 e0 10             	shl    $0x10,%eax
    2876:	09 c2                	or     %eax,%edx
    2878:	8b 45 fc             	mov    -0x4(%ebp),%eax
    287b:	0f b7 40 02          	movzwl 0x2(%eax),%eax
    287f:	0f b7 c0             	movzwl %ax,%eax
    2882:	09 d0                	or     %edx,%eax
    2884:	c9                   	leave  
    2885:	c3                   	ret    

00002886 <init_desc>:
    2886:	55                   	push   %ebp
    2887:	89 e5                	mov    %esp,%ebp
    2889:	83 ec 04             	sub    $0x4,%esp
    288c:	8b 45 14             	mov    0x14(%ebp),%eax
    288f:	66 89 45 fc          	mov    %ax,-0x4(%ebp)
    2893:	8b 45 10             	mov    0x10(%ebp),%eax
    2896:	89 c2                	mov    %eax,%edx
    2898:	8b 45 08             	mov    0x8(%ebp),%eax
    289b:	66 89 10             	mov    %dx,(%eax)
    289e:	8b 45 0c             	mov    0xc(%ebp),%eax
    28a1:	89 c2                	mov    %eax,%edx
    28a3:	8b 45 08             	mov    0x8(%ebp),%eax
    28a6:	66 89 50 02          	mov    %dx,0x2(%eax)
    28aa:	8b 45 0c             	mov    0xc(%ebp),%eax
    28ad:	c1 e8 10             	shr    $0x10,%eax
    28b0:	89 c2                	mov    %eax,%edx
    28b2:	8b 45 08             	mov    0x8(%ebp),%eax
    28b5:	88 50 04             	mov    %dl,0x4(%eax)
    28b8:	0f b7 45 fc          	movzwl -0x4(%ebp),%eax
    28bc:	89 c2                	mov    %eax,%edx
    28be:	8b 45 08             	mov    0x8(%ebp),%eax
    28c1:	88 50 05             	mov    %dl,0x5(%eax)
    28c4:	8b 45 10             	mov    0x10(%ebp),%eax
    28c7:	c1 e8 10             	shr    $0x10,%eax
    28ca:	89 c2                	mov    %eax,%edx
    28cc:	83 e2 0f             	and    $0xf,%edx
    28cf:	0f b7 45 fc          	movzwl -0x4(%ebp),%eax
    28d3:	66 c1 e8 08          	shr    $0x8,%ax
    28d7:	83 e0 f0             	and    $0xfffffff0,%eax
    28da:	09 c2                	or     %eax,%edx
    28dc:	8b 45 08             	mov    0x8(%ebp),%eax
    28df:	88 50 06             	mov    %dl,0x6(%eax)
    28e2:	8b 45 0c             	mov    0xc(%ebp),%eax
    28e5:	c1 e8 18             	shr    $0x18,%eax
    28e8:	89 c2                	mov    %eax,%edx
    28ea:	8b 45 08             	mov    0x8(%ebp),%eax
    28ed:	88 50 07             	mov    %dl,0x7(%eax)
    28f0:	c9                   	leave  
    28f1:	c3                   	ret    

000028f2 <exception_handler>:
    28f2:	55                   	push   %ebp
    28f3:	89 e5                	mov    %esp,%ebp
    28f5:	57                   	push   %edi
    28f6:	53                   	push   %ebx
    28f7:	81 ec 20 05 00 00    	sub    $0x520,%esp
    28fd:	c7 45 f0 74 00 00 00 	movl   $0x74,-0x10(%ebp)
    2904:	8d 9d f0 fa ff ff    	lea    -0x510(%ebp),%ebx
    290a:	b8 00 00 00 00       	mov    $0x0,%eax
    290f:	ba 40 01 00 00       	mov    $0x140,%edx
    2914:	89 df                	mov    %ebx,%edi
    2916:	89 d1                	mov    %edx,%ecx
    2918:	f3 ab                	rep stos %eax,%es:(%edi)
    291a:	c7 85 f0 fa ff ff 23 	movl   $0x20454423,-0x510(%ebp)
    2921:	44 45 20 
    2924:	c7 85 f4 fa ff ff 44 	movl   $0x69766944,-0x50c(%ebp)
    292b:	69 76 69 
    292e:	c7 85 f8 fa ff ff 64 	movl   $0x45206564,-0x508(%ebp)
    2935:	65 20 45 
    2938:	c7 85 fc fa ff ff 72 	movl   $0x726f7272,-0x504(%ebp)
    293f:	72 6f 72 
    2942:	c7 85 00 fb ff ff 00 	movl   $0x0,-0x500(%ebp)
    2949:	00 00 00 
    294c:	8d 9d 04 fb ff ff    	lea    -0x4fc(%ebp),%ebx
    2952:	b8 00 00 00 00       	mov    $0x0,%eax
    2957:	ba 0b 00 00 00       	mov    $0xb,%edx
    295c:	89 df                	mov    %ebx,%edi
    295e:	89 d1                	mov    %edx,%ecx
    2960:	f3 ab                	rep stos %eax,%es:(%edi)
    2962:	c7 85 30 fb ff ff 23 	movl   $0x20424423,-0x4d0(%ebp)
    2969:	44 42 20 
    296c:	c7 85 34 fb ff ff 52 	movl   $0x45534552,-0x4cc(%ebp)
    2973:	45 53 45 
    2976:	c7 85 38 fb ff ff 52 	movl   $0x44455652,-0x4c8(%ebp)
    297d:	56 45 44 
    2980:	c7 85 3c fb ff ff 00 	movl   $0x0,-0x4c4(%ebp)
    2987:	00 00 00 
    298a:	8d 9d 40 fb ff ff    	lea    -0x4c0(%ebp),%ebx
    2990:	b8 00 00 00 00       	mov    $0x0,%eax
    2995:	ba 0c 00 00 00       	mov    $0xc,%edx
    299a:	89 df                	mov    %ebx,%edi
    299c:	89 d1                	mov    %edx,%ecx
    299e:	f3 ab                	rep stos %eax,%es:(%edi)
    29a0:	c7 85 70 fb ff ff e2 	movl   $0x209480e2,-0x490(%ebp)
    29a7:	80 94 20 
    29aa:	c7 85 74 fb ff ff 20 	movl   $0x494d4e20,-0x48c(%ebp)
    29b1:	4e 4d 49 
    29b4:	c7 85 78 fb ff ff 20 	movl   $0x746e4920,-0x488(%ebp)
    29bb:	49 6e 74 
    29be:	c7 85 7c fb ff ff 65 	movl   $0x75727265,-0x484(%ebp)
    29c5:	72 72 75 
    29c8:	c7 85 80 fb ff ff 70 	movl   $0x7470,-0x480(%ebp)
    29cf:	74 00 00 
    29d2:	8d 9d 84 fb ff ff    	lea    -0x47c(%ebp),%ebx
    29d8:	b8 00 00 00 00       	mov    $0x0,%eax
    29dd:	ba 0b 00 00 00       	mov    $0xb,%edx
    29e2:	89 df                	mov    %ebx,%edi
    29e4:	89 d1                	mov    %edx,%ecx
    29e6:	f3 ab                	rep stos %eax,%es:(%edi)
    29e8:	c7 85 b0 fb ff ff 23 	movl   $0x20504223,-0x450(%ebp)
    29ef:	42 50 20 
    29f2:	c7 85 b4 fb ff ff 42 	movl   $0x61657242,-0x44c(%ebp)
    29f9:	72 65 61 
    29fc:	c7 85 b8 fb ff ff 6b 	movl   $0x696f706b,-0x448(%ebp)
    2a03:	70 6f 69 
    2a06:	c7 85 bc fb ff ff 6e 	movl   $0x746e,-0x444(%ebp)
    2a0d:	74 00 00 
    2a10:	8d 9d c0 fb ff ff    	lea    -0x440(%ebp),%ebx
    2a16:	b8 00 00 00 00       	mov    $0x0,%eax
    2a1b:	ba 0c 00 00 00       	mov    $0xc,%edx
    2a20:	89 df                	mov    %ebx,%edi
    2a22:	89 d1                	mov    %edx,%ecx
    2a24:	f3 ab                	rep stos %eax,%es:(%edi)
    2a26:	c7 85 f0 fb ff ff 23 	movl   $0x20464f23,-0x410(%ebp)
    2a2d:	4f 46 20 
    2a30:	c7 85 f4 fb ff ff 4f 	movl   $0x7265764f,-0x40c(%ebp)
    2a37:	76 65 72 
    2a3a:	c7 85 f8 fb ff ff 66 	movl   $0x776f6c66,-0x408(%ebp)
    2a41:	6c 6f 77 
    2a44:	c7 85 fc fb ff ff 00 	movl   $0x0,-0x404(%ebp)
    2a4b:	00 00 00 
    2a4e:	8d 9d 00 fc ff ff    	lea    -0x400(%ebp),%ebx
    2a54:	b8 00 00 00 00       	mov    $0x0,%eax
    2a59:	ba 0c 00 00 00       	mov    $0xc,%edx
    2a5e:	89 df                	mov    %ebx,%edi
    2a60:	89 d1                	mov    %edx,%ecx
    2a62:	f3 ab                	rep stos %eax,%es:(%edi)
    2a64:	c7 85 30 fc ff ff 23 	movl   $0x20524223,-0x3d0(%ebp)
    2a6b:	42 52 20 
    2a6e:	c7 85 34 fc ff ff 42 	movl   $0x4e554f42,-0x3cc(%ebp)
    2a75:	4f 55 4e 
    2a78:	c7 85 38 fc ff ff 44 	movl   $0x61522044,-0x3c8(%ebp)
    2a7f:	20 52 61 
    2a82:	c7 85 3c fc ff ff 6e 	movl   $0x2065676e,-0x3c4(%ebp)
    2a89:	67 65 20 
    2a8c:	c7 85 40 fc ff ff 45 	movl   $0x65637845,-0x3c0(%ebp)
    2a93:	78 63 65 
    2a96:	c7 85 44 fc ff ff 65 	movl   $0x64656465,-0x3bc(%ebp)
    2a9d:	64 65 64 
    2aa0:	c7 85 48 fc ff ff 00 	movl   $0x0,-0x3b8(%ebp)
    2aa7:	00 00 00 
    2aaa:	8d 9d 4c fc ff ff    	lea    -0x3b4(%ebp),%ebx
    2ab0:	b8 00 00 00 00       	mov    $0x0,%eax
    2ab5:	ba 09 00 00 00       	mov    $0x9,%edx
    2aba:	89 df                	mov    %ebx,%edi
    2abc:	89 d1                	mov    %edx,%ecx
    2abe:	f3 ab                	rep stos %eax,%es:(%edi)
    2ac0:	c7 85 70 fc ff ff 23 	movl   $0x20445523,-0x390(%ebp)
    2ac7:	55 44 20 
    2aca:	c7 85 74 fc ff ff 49 	movl   $0x61766e49,-0x38c(%ebp)
    2ad1:	6e 76 61 
    2ad4:	c7 85 78 fc ff ff 6c 	movl   $0x2064696c,-0x388(%ebp)
    2adb:	69 64 20 
    2ade:	c7 85 7c fc ff ff 4f 	movl   $0x6f63704f,-0x384(%ebp)
    2ae5:	70 63 6f 
    2ae8:	c7 85 80 fc ff ff 64 	movl   $0x28206564,-0x380(%ebp)
    2aef:	65 20 28 
    2af2:	c7 85 84 fc ff ff 55 	movl   $0x65646e55,-0x37c(%ebp)
    2af9:	6e 64 65 
    2afc:	c7 85 88 fc ff ff 66 	movl   $0x656e6966,-0x378(%ebp)
    2b03:	69 6e 65 
    2b06:	c7 85 8c fc ff ff 64 	movl   $0x704f2064,-0x374(%ebp)
    2b0d:	20 4f 70 
    2b10:	c7 85 90 fc ff ff 63 	movl   $0x65646f63,-0x370(%ebp)
    2b17:	6f 64 65 
    2b1a:	c7 85 94 fc ff ff 29 	movl   $0x29,-0x36c(%ebp)
    2b21:	00 00 00 
    2b24:	8d 95 98 fc ff ff    	lea    -0x368(%ebp),%edx
    2b2a:	b9 00 00 00 00       	mov    $0x0,%ecx
    2b2f:	b8 18 00 00 00       	mov    $0x18,%eax
    2b34:	89 c3                	mov    %eax,%ebx
    2b36:	83 e3 fc             	and    $0xfffffffc,%ebx
    2b39:	b8 00 00 00 00       	mov    $0x0,%eax
    2b3e:	89 0c 02             	mov    %ecx,(%edx,%eax,1)
    2b41:	83 c0 04             	add    $0x4,%eax
    2b44:	39 d8                	cmp    %ebx,%eax
    2b46:	72 f6                	jb     2b3e <exception_handler+0x24c>
    2b48:	01 c2                	add    %eax,%edx
    2b4a:	c7 85 b0 fc ff ff 23 	movl   $0x204d4e23,-0x350(%ebp)
    2b51:	4e 4d 20 
    2b54:	c7 85 b4 fc ff ff 44 	movl   $0x69766544,-0x34c(%ebp)
    2b5b:	65 76 69 
    2b5e:	c7 85 b8 fc ff ff 63 	movl   $0x4e206563,-0x348(%ebp)
    2b65:	65 20 4e 
    2b68:	c7 85 bc fc ff ff 6f 	movl   $0x4120746f,-0x344(%ebp)
    2b6f:	74 20 41 
    2b72:	c7 85 c0 fc ff ff 76 	movl   $0x6c696176,-0x340(%ebp)
    2b79:	61 69 6c 
    2b7c:	c7 85 c4 fc ff ff 61 	movl   $0x656c6261,-0x33c(%ebp)
    2b83:	62 6c 65 
    2b86:	c7 85 c8 fc ff ff 20 	movl   $0x6f4e2820,-0x338(%ebp)
    2b8d:	28 4e 6f 
    2b90:	c7 85 cc fc ff ff 20 	movl   $0x74614d20,-0x334(%ebp)
    2b97:	4d 61 74 
    2b9a:	c7 85 d0 fc ff ff 68 	movl   $0x6f432068,-0x330(%ebp)
    2ba1:	20 43 6f 
    2ba4:	c7 85 d4 fc ff ff 70 	movl   $0x636f7270,-0x32c(%ebp)
    2bab:	72 6f 63 
    2bae:	c7 85 d8 fc ff ff 65 	movl   $0x6f737365,-0x328(%ebp)
    2bb5:	73 73 6f 
    2bb8:	c7 85 dc fc ff ff 72 	movl   $0x2972,-0x324(%ebp)
    2bbf:	29 00 00 
    2bc2:	c7 85 e0 fc ff ff 00 	movl   $0x0,-0x320(%ebp)
    2bc9:	00 00 00 
    2bcc:	c7 85 e4 fc ff ff 00 	movl   $0x0,-0x31c(%ebp)
    2bd3:	00 00 00 
    2bd6:	c7 85 e8 fc ff ff 00 	movl   $0x0,-0x318(%ebp)
    2bdd:	00 00 00 
    2be0:	c7 85 ec fc ff ff 00 	movl   $0x0,-0x314(%ebp)
    2be7:	00 00 00 
    2bea:	c7 85 f0 fc ff ff 23 	movl   $0x20464423,-0x310(%ebp)
    2bf1:	44 46 20 
    2bf4:	c7 85 f4 fc ff ff 44 	movl   $0x62756f44,-0x30c(%ebp)
    2bfb:	6f 75 62 
    2bfe:	c7 85 f8 fc ff ff 6c 	movl   $0x4620656c,-0x308(%ebp)
    2c05:	65 20 46 
    2c08:	c7 85 fc fc ff ff 61 	movl   $0x746c7561,-0x304(%ebp)
    2c0f:	75 6c 74 
    2c12:	c7 85 00 fd ff ff 00 	movl   $0x0,-0x300(%ebp)
    2c19:	00 00 00 
    2c1c:	8d 9d 04 fd ff ff    	lea    -0x2fc(%ebp),%ebx
    2c22:	b8 00 00 00 00       	mov    $0x0,%eax
    2c27:	ba 0b 00 00 00       	mov    $0xb,%edx
    2c2c:	89 df                	mov    %ebx,%edi
    2c2e:	89 d1                	mov    %edx,%ecx
    2c30:	f3 ab                	rep stos %eax,%es:(%edi)
    2c32:	c7 85 30 fd ff ff 20 	movl   $0x20202020,-0x2d0(%ebp)
    2c39:	20 20 20 
    2c3c:	c7 85 34 fd ff ff 43 	movl   $0x72706f43,-0x2cc(%ebp)
    2c43:	6f 70 72 
    2c46:	c7 85 38 fd ff ff 6f 	movl   $0x7365636f,-0x2c8(%ebp)
    2c4d:	63 65 73 
    2c50:	c7 85 3c fd ff ff 73 	movl   $0x20726f73,-0x2c4(%ebp)
    2c57:	6f 72 20 
    2c5a:	c7 85 40 fd ff ff 53 	movl   $0x6d676553,-0x2c0(%ebp)
    2c61:	65 67 6d 
    2c64:	c7 85 44 fd ff ff 65 	movl   $0x20746e65,-0x2bc(%ebp)
    2c6b:	6e 74 20 
    2c6e:	c7 85 48 fd ff ff 4f 	movl   $0x7265764f,-0x2b8(%ebp)
    2c75:	76 65 72 
    2c78:	c7 85 4c fd ff ff 72 	movl   $0x206e7572,-0x2b4(%ebp)
    2c7f:	75 6e 20 
    2c82:	c7 85 50 fd ff ff 28 	movl   $0x73657228,-0x2b0(%ebp)
    2c89:	72 65 73 
    2c8c:	c7 85 54 fd ff ff 65 	movl   $0x65767265,-0x2ac(%ebp)
    2c93:	72 76 65 
    2c96:	c7 85 58 fd ff ff 64 	movl   $0x2964,-0x2a8(%ebp)
    2c9d:	29 00 00 
    2ca0:	c7 85 5c fd ff ff 00 	movl   $0x0,-0x2a4(%ebp)
    2ca7:	00 00 00 
    2caa:	c7 85 60 fd ff ff 00 	movl   $0x0,-0x2a0(%ebp)
    2cb1:	00 00 00 
    2cb4:	c7 85 64 fd ff ff 00 	movl   $0x0,-0x29c(%ebp)
    2cbb:	00 00 00 
    2cbe:	c7 85 68 fd ff ff 00 	movl   $0x0,-0x298(%ebp)
    2cc5:	00 00 00 
    2cc8:	c7 85 6c fd ff ff 00 	movl   $0x0,-0x294(%ebp)
    2ccf:	00 00 00 
    2cd2:	c7 85 70 fd ff ff 23 	movl   $0x20535423,-0x290(%ebp)
    2cd9:	54 53 20 
    2cdc:	c7 85 74 fd ff ff 49 	movl   $0x61766e49,-0x28c(%ebp)
    2ce3:	6e 76 61 
    2ce6:	c7 85 78 fd ff ff 6c 	movl   $0x2064696c,-0x288(%ebp)
    2ced:	69 64 20 
    2cf0:	c7 85 7c fd ff ff 54 	movl   $0x535354,-0x284(%ebp)
    2cf7:	53 53 00 
    2cfa:	8d 9d 80 fd ff ff    	lea    -0x280(%ebp),%ebx
    2d00:	b8 00 00 00 00       	mov    $0x0,%eax
    2d05:	ba 0c 00 00 00       	mov    $0xc,%edx
    2d0a:	89 df                	mov    %ebx,%edi
    2d0c:	89 d1                	mov    %edx,%ecx
    2d0e:	f3 ab                	rep stos %eax,%es:(%edi)
    2d10:	c7 85 b0 fd ff ff 23 	movl   $0x20504e23,-0x250(%ebp)
    2d17:	4e 50 20 
    2d1a:	c7 85 b4 fd ff ff 53 	movl   $0x6d676553,-0x24c(%ebp)
    2d21:	65 67 6d 
    2d24:	c7 85 b8 fd ff ff 65 	movl   $0x20746e65,-0x248(%ebp)
    2d2b:	6e 74 20 
    2d2e:	c7 85 bc fd ff ff 4e 	movl   $0x20746f4e,-0x244(%ebp)
    2d35:	6f 74 20 
    2d38:	c7 85 c0 fd ff ff 50 	movl   $0x73657250,-0x240(%ebp)
    2d3f:	72 65 73 
    2d42:	c7 85 c4 fd ff ff 65 	movl   $0x746e65,-0x23c(%ebp)
    2d49:	6e 74 00 
    2d4c:	8d 9d c8 fd ff ff    	lea    -0x238(%ebp),%ebx
    2d52:	b8 00 00 00 00       	mov    $0x0,%eax
    2d57:	ba 0a 00 00 00       	mov    $0xa,%edx
    2d5c:	89 df                	mov    %ebx,%edi
    2d5e:	89 d1                	mov    %edx,%ecx
    2d60:	f3 ab                	rep stos %eax,%es:(%edi)
    2d62:	c7 85 f0 fd ff ff 23 	movl   $0x20535323,-0x210(%ebp)
    2d69:	53 53 20 
    2d6c:	c7 85 f4 fd ff ff 53 	movl   $0x63617453,-0x20c(%ebp)
    2d73:	74 61 63 
    2d76:	c7 85 f8 fd ff ff 6b 	movl   $0x65532d6b,-0x208(%ebp)
    2d7d:	2d 53 65 
    2d80:	c7 85 fc fd ff ff 67 	movl   $0x6e656d67,-0x204(%ebp)
    2d87:	6d 65 6e 
    2d8a:	c7 85 00 fe ff ff 74 	movl   $0x61462074,-0x200(%ebp)
    2d91:	20 46 61 
    2d94:	c7 85 04 fe ff ff 75 	movl   $0x746c75,-0x1fc(%ebp)
    2d9b:	6c 74 00 
    2d9e:	8d 9d 08 fe ff ff    	lea    -0x1f8(%ebp),%ebx
    2da4:	b8 00 00 00 00       	mov    $0x0,%eax
    2da9:	ba 0a 00 00 00       	mov    $0xa,%edx
    2dae:	89 df                	mov    %ebx,%edi
    2db0:	89 d1                	mov    %edx,%ecx
    2db2:	f3 ab                	rep stos %eax,%es:(%edi)
    2db4:	c7 85 30 fe ff ff 23 	movl   $0x20504723,-0x1d0(%ebp)
    2dbb:	47 50 20 
    2dbe:	c7 85 34 fe ff ff 47 	movl   $0x656e6547,-0x1cc(%ebp)
    2dc5:	65 6e 65 
    2dc8:	c7 85 38 fe ff ff 72 	movl   $0x206c6172,-0x1c8(%ebp)
    2dcf:	61 6c 20 
    2dd2:	c7 85 3c fe ff ff 50 	movl   $0x746f7250,-0x1c4(%ebp)
    2dd9:	72 6f 74 
    2ddc:	c7 85 40 fe ff ff 65 	movl   $0x69746365,-0x1c0(%ebp)
    2de3:	63 74 69 
    2de6:	c7 85 44 fe ff ff 6f 	movl   $0x6e6f,-0x1bc(%ebp)
    2ded:	6e 00 00 
    2df0:	8d 9d 48 fe ff ff    	lea    -0x1b8(%ebp),%ebx
    2df6:	b8 00 00 00 00       	mov    $0x0,%eax
    2dfb:	ba 0a 00 00 00       	mov    $0xa,%edx
    2e00:	89 df                	mov    %ebx,%edi
    2e02:	89 d1                	mov    %edx,%ecx
    2e04:	f3 ab                	rep stos %eax,%es:(%edi)
    2e06:	c7 85 70 fe ff ff 23 	movl   $0x20465023,-0x190(%ebp)
    2e0d:	50 46 20 
    2e10:	c7 85 74 fe ff ff 50 	movl   $0x65676150,-0x18c(%ebp)
    2e17:	61 67 65 
    2e1a:	c7 85 78 fe ff ff 20 	movl   $0x75614620,-0x188(%ebp)
    2e21:	46 61 75 
    2e24:	c7 85 7c fe ff ff 6c 	movl   $0x746c,-0x184(%ebp)
    2e2b:	74 00 00 
    2e2e:	8d 9d 80 fe ff ff    	lea    -0x180(%ebp),%ebx
    2e34:	b8 00 00 00 00       	mov    $0x0,%eax
    2e39:	ba 0c 00 00 00       	mov    $0xc,%edx
    2e3e:	89 df                	mov    %ebx,%edi
    2e40:	89 d1                	mov    %edx,%ecx
    2e42:	f3 ab                	rep stos %eax,%es:(%edi)
    2e44:	c7 85 b0 fe ff ff e2 	movl   $0x209480e2,-0x150(%ebp)
    2e4b:	80 94 20 
    2e4e:	c7 85 b4 fe ff ff 20 	movl   $0x6e492820,-0x14c(%ebp)
    2e55:	28 49 6e 
    2e58:	c7 85 b8 fe ff ff 74 	movl   $0x206c6574,-0x148(%ebp)
    2e5f:	65 6c 20 
    2e62:	c7 85 bc fe ff ff 72 	movl   $0x65736572,-0x144(%ebp)
    2e69:	65 73 65 
    2e6c:	c7 85 c0 fe ff ff 72 	movl   $0x64657672,-0x140(%ebp)
    2e73:	76 65 64 
    2e76:	c7 85 c4 fe ff ff 2e 	movl   $0x6f44202e,-0x13c(%ebp)
    2e7d:	20 44 6f 
    2e80:	c7 85 c8 fe ff ff 20 	movl   $0x746f6e20,-0x138(%ebp)
    2e87:	6e 6f 74 
    2e8a:	c7 85 cc fe ff ff 20 	movl   $0x65737520,-0x134(%ebp)
    2e91:	75 73 65 
    2e94:	c7 85 d0 fe ff ff 2e 	movl   $0x292e,-0x130(%ebp)
    2e9b:	29 00 00 
    2e9e:	8d 95 d4 fe ff ff    	lea    -0x12c(%ebp),%edx
    2ea4:	b9 00 00 00 00       	mov    $0x0,%ecx
    2ea9:	b8 1c 00 00 00       	mov    $0x1c,%eax
    2eae:	89 c3                	mov    %eax,%ebx
    2eb0:	83 e3 fc             	and    $0xfffffffc,%ebx
    2eb3:	b8 00 00 00 00       	mov    $0x0,%eax
    2eb8:	89 0c 02             	mov    %ecx,(%edx,%eax,1)
    2ebb:	83 c0 04             	add    $0x4,%eax
    2ebe:	39 d8                	cmp    %ebx,%eax
    2ec0:	72 f6                	jb     2eb8 <exception_handler+0x5c6>
    2ec2:	01 c2                	add    %eax,%edx
    2ec4:	c7 85 f0 fe ff ff 23 	movl   $0x20464d23,-0x110(%ebp)
    2ecb:	4d 46 20 
    2ece:	c7 85 f4 fe ff ff 78 	movl   $0x20373878,-0x10c(%ebp)
    2ed5:	38 37 20 
    2ed8:	c7 85 f8 fe ff ff 46 	movl   $0x20555046,-0x108(%ebp)
    2edf:	50 55 20 
    2ee2:	c7 85 fc fe ff ff 46 	movl   $0x616f6c46,-0x104(%ebp)
    2ee9:	6c 6f 61 
    2eec:	c7 85 00 ff ff ff 74 	movl   $0x676e6974,-0x100(%ebp)
    2ef3:	69 6e 67 
    2ef6:	c7 85 04 ff ff ff 2d 	movl   $0x696f502d,-0xfc(%ebp)
    2efd:	50 6f 69 
    2f00:	c7 85 08 ff ff ff 6e 	movl   $0x4520746e,-0xf8(%ebp)
    2f07:	74 20 45 
    2f0a:	c7 85 0c ff ff ff 72 	movl   $0x726f7272,-0xf4(%ebp)
    2f11:	72 6f 72 
    2f14:	c7 85 10 ff ff ff 20 	movl   $0x614d2820,-0xf0(%ebp)
    2f1b:	28 4d 61 
    2f1e:	c7 85 14 ff ff ff 74 	movl   $0x46206874,-0xec(%ebp)
    2f25:	68 20 46 
    2f28:	c7 85 18 ff ff ff 61 	movl   $0x746c7561,-0xe8(%ebp)
    2f2f:	75 6c 74 
    2f32:	c7 85 1c ff ff ff 29 	movl   $0x29,-0xe4(%ebp)
    2f39:	00 00 00 
    2f3c:	c7 85 20 ff ff ff 00 	movl   $0x0,-0xe0(%ebp)
    2f43:	00 00 00 
    2f46:	c7 85 24 ff ff ff 00 	movl   $0x0,-0xdc(%ebp)
    2f4d:	00 00 00 
    2f50:	c7 85 28 ff ff ff 00 	movl   $0x0,-0xd8(%ebp)
    2f57:	00 00 00 
    2f5a:	c7 85 2c ff ff ff 00 	movl   $0x0,-0xd4(%ebp)
    2f61:	00 00 00 
    2f64:	c7 85 30 ff ff ff 23 	movl   $0x20434123,-0xd0(%ebp)
    2f6b:	41 43 20 
    2f6e:	c7 85 34 ff ff ff 41 	movl   $0x67696c41,-0xcc(%ebp)
    2f75:	6c 69 67 
    2f78:	c7 85 38 ff ff ff 6e 	movl   $0x6e656d6e,-0xc8(%ebp)
    2f7f:	6d 65 6e 
    2f82:	c7 85 3c ff ff ff 74 	movl   $0x68432074,-0xc4(%ebp)
    2f89:	20 43 68 
    2f8c:	c7 85 40 ff ff ff 65 	movl   $0x6b6365,-0xc0(%ebp)
    2f93:	63 6b 00 
    2f96:	8d 9d 44 ff ff ff    	lea    -0xbc(%ebp),%ebx
    2f9c:	b8 00 00 00 00       	mov    $0x0,%eax
    2fa1:	ba 0b 00 00 00       	mov    $0xb,%edx
    2fa6:	89 df                	mov    %ebx,%edi
    2fa8:	89 d1                	mov    %edx,%ecx
    2faa:	f3 ab                	rep stos %eax,%es:(%edi)
    2fac:	c7 85 70 ff ff ff 23 	movl   $0x20434d23,-0x90(%ebp)
    2fb3:	4d 43 20 
    2fb6:	c7 85 74 ff ff ff 4d 	movl   $0x6863614d,-0x8c(%ebp)
    2fbd:	61 63 68 
    2fc0:	c7 85 78 ff ff ff 69 	movl   $0x20656e69,-0x88(%ebp)
    2fc7:	6e 65 20 
    2fca:	c7 85 7c ff ff ff 43 	movl   $0x63656843,-0x84(%ebp)
    2fd1:	68 65 63 
    2fd4:	c7 45 80 6b 00 00 00 	movl   $0x6b,-0x80(%ebp)
    2fdb:	8d 5d 84             	lea    -0x7c(%ebp),%ebx
    2fde:	b8 00 00 00 00       	mov    $0x0,%eax
    2fe3:	ba 0b 00 00 00       	mov    $0xb,%edx
    2fe8:	89 df                	mov    %ebx,%edi
    2fea:	89 d1                	mov    %edx,%ecx
    2fec:	f3 ab                	rep stos %eax,%es:(%edi)
    2fee:	c7 45 b0 23 58 46 20 	movl   $0x20465823,-0x50(%ebp)
    2ff5:	c7 45 b4 53 49 4d 44 	movl   $0x444d4953,-0x4c(%ebp)
    2ffc:	c7 45 b8 20 46 6c 6f 	movl   $0x6f6c4620,-0x48(%ebp)
    3003:	c7 45 bc 61 74 69 6e 	movl   $0x6e697461,-0x44(%ebp)
    300a:	c7 45 c0 67 2d 50 6f 	movl   $0x6f502d67,-0x40(%ebp)
    3011:	c7 45 c4 69 6e 74 20 	movl   $0x20746e69,-0x3c(%ebp)
    3018:	c7 45 c8 45 78 63 65 	movl   $0x65637845,-0x38(%ebp)
    301f:	c7 45 cc 70 74 69 6f 	movl   $0x6f697470,-0x34(%ebp)
    3026:	c7 45 d0 6e 00 00 00 	movl   $0x6e,-0x30(%ebp)
    302d:	8d 55 d4             	lea    -0x2c(%ebp),%edx
    3030:	b9 00 00 00 00       	mov    $0x0,%ecx
    3035:	b8 1c 00 00 00       	mov    $0x1c,%eax
    303a:	89 c3                	mov    %eax,%ebx
    303c:	83 e3 fc             	and    $0xfffffffc,%ebx
    303f:	b8 00 00 00 00       	mov    $0x0,%eax
    3044:	89 0c 02             	mov    %ecx,(%edx,%eax,1)
    3047:	83 c0 04             	add    $0x4,%eax
    304a:	39 d8                	cmp    %ebx,%eax
    304c:	72 f6                	jb     3044 <exception_handler+0x752>
    304e:	01 c2                	add    %eax,%edx
    3050:	c7 05 68 ed 04 00 00 	movl   $0x0,0x4ed68
    3057:	00 00 00 
    305a:	c7 45 f4 00 00 00 00 	movl   $0x0,-0xc(%ebp)
    3061:	eb 10                	jmp    3073 <exception_handler+0x781>
    3063:	c7 04 24 2f 0c 01 00 	movl   $0x10c2f,(%esp)
    306a:	e8 81 1e 00 00       	call   4ef0 <disp_str>
    306f:	83 45 f4 01          	addl   $0x1,-0xc(%ebp)
    3073:	81 7d f4 8f 01 00 00 	cmpl   $0x18f,-0xc(%ebp)
    307a:	7e e7                	jle    3063 <exception_handler+0x771>
    307c:	c7 05 68 ed 04 00 00 	movl   $0x0,0x4ed68
    3083:	00 00 00 
    3086:	8b 45 f0             	mov    -0x10(%ebp),%eax
    3089:	89 44 24 04          	mov    %eax,0x4(%esp)
    308d:	c7 04 24 31 0c 01 00 	movl   $0x10c31,(%esp)
    3094:	e8 9e 1e 00 00       	call   4f37 <disp_color_str>
    3099:	8d 85 f0 fa ff ff    	lea    -0x510(%ebp),%eax
    309f:	8b 55 08             	mov    0x8(%ebp),%edx
    30a2:	c1 e2 06             	shl    $0x6,%edx
    30a5:	8d 14 10             	lea    (%eax,%edx,1),%edx
    30a8:	8b 45 f0             	mov    -0x10(%ebp),%eax
    30ab:	89 44 24 04          	mov    %eax,0x4(%esp)
    30af:	89 14 24             	mov    %edx,(%esp)
    30b2:	e8 80 1e 00 00       	call   4f37 <disp_color_str>
    30b7:	8b 45 f0             	mov    -0x10(%ebp),%eax
    30ba:	89 44 24 04          	mov    %eax,0x4(%esp)
    30be:	c7 04 24 41 0c 01 00 	movl   $0x10c41,(%esp)
    30c5:	e8 6d 1e 00 00       	call   4f37 <disp_color_str>
    30ca:	8b 45 f0             	mov    -0x10(%ebp),%eax
    30cd:	89 44 24 04          	mov    %eax,0x4(%esp)
    30d1:	c7 04 24 44 0c 01 00 	movl   $0x10c44,(%esp)
    30d8:	e8 5a 1e 00 00       	call   4f37 <disp_color_str>
    30dd:	8b 45 18             	mov    0x18(%ebp),%eax
    30e0:	89 04 24             	mov    %eax,(%esp)
    30e3:	e8 b9 22 00 00       	call   53a1 <disp_int>
    30e8:	8b 45 f0             	mov    -0x10(%ebp),%eax
    30eb:	89 44 24 04          	mov    %eax,0x4(%esp)
    30ef:	c7 04 24 4c 0c 01 00 	movl   $0x10c4c,(%esp)
    30f6:	e8 3c 1e 00 00       	call   4f37 <disp_color_str>
    30fb:	8b 45 14             	mov    0x14(%ebp),%eax
    30fe:	89 04 24             	mov    %eax,(%esp)
    3101:	e8 9b 22 00 00       	call   53a1 <disp_int>
    3106:	8b 45 f0             	mov    -0x10(%ebp),%eax
    3109:	89 44 24 04          	mov    %eax,0x4(%esp)
    310d:	c7 04 24 50 0c 01 00 	movl   $0x10c50,(%esp)
    3114:	e8 1e 1e 00 00       	call   4f37 <disp_color_str>
    3119:	8b 45 10             	mov    0x10(%ebp),%eax
    311c:	89 04 24             	mov    %eax,(%esp)
    311f:	e8 7d 22 00 00       	call   53a1 <disp_int>
    3124:	8b 45 f0             	mov    -0x10(%ebp),%eax
    3127:	89 44 24 04          	mov    %eax,0x4(%esp)
    312b:	c7 04 24 55 0c 01 00 	movl   $0x10c55,(%esp)
    3132:	e8 00 1e 00 00       	call   4f37 <disp_color_str>
    3137:	a1 64 ed 04 00       	mov    0x4ed64,%eax
    313c:	89 c2                	mov    %eax,%edx
    313e:	b8 c0 0c 05 00       	mov    $0x50cc0,%eax
    3143:	89 d1                	mov    %edx,%ecx
    3145:	29 c1                	sub    %eax,%ecx
    3147:	89 c8                	mov    %ecx,%eax
    3149:	d1 f8                	sar    %eax
    314b:	69 c0 93 7c 28 ad    	imul   $0xad287c93,%eax,%eax
    3151:	89 04 24             	mov    %eax,(%esp)
    3154:	e8 48 22 00 00       	call   53a1 <disp_int>
    3159:	83 7d 0c ff          	cmpl   $0xffffffff,0xc(%ebp)
    315d:	74 1e                	je     317d <exception_handler+0x88b>
    315f:	8b 45 f0             	mov    -0x10(%ebp),%eax
    3162:	89 44 24 04          	mov    %eax,0x4(%esp)
    3166:	c7 04 24 5a 0c 01 00 	movl   $0x10c5a,(%esp)
    316d:	e8 c5 1d 00 00       	call   4f37 <disp_color_str>
    3172:	8b 45 0c             	mov    0xc(%ebp),%eax
    3175:	89 04 24             	mov    %eax,(%esp)
    3178:	e8 24 22 00 00       	call   53a1 <disp_int>
    317d:	81 c4 20 05 00 00    	add    $0x520,%esp
    3183:	5b                   	pop    %ebx
    3184:	5f                   	pop    %edi
    3185:	5d                   	pop    %ebp
    3186:	c3                   	ret    
    3187:	90                   	nop

00003188 <schedule>:
    3188:	55                   	push   %ebp
    3189:	89 e5                	mov    %esp,%ebp
    318b:	83 ec 10             	sub    $0x10,%esp
    318e:	c7 45 f8 00 00 00 00 	movl   $0x0,-0x8(%ebp)
    3195:	c7 45 fc c0 0c 05 00 	movl   $0x50cc0,-0x4(%ebp)
    319c:	eb 44                	jmp    31e2 <schedule+0x5a>
    319e:	8b 45 fc             	mov    -0x4(%ebp),%eax
    31a1:	8b 80 fa 01 00 00    	mov    0x1fa(%eax),%eax
    31a7:	85 c0                	test   %eax,%eax
    31a9:	74 30                	je     31db <schedule+0x53>
    31ab:	8b 45 fc             	mov    -0x4(%ebp),%eax
    31ae:	8b 90 fa 01 00 00    	mov    0x1fa(%eax),%edx
    31b4:	a1 e0 01 05 00       	mov    0x501e0,%eax
    31b9:	39 c2                	cmp    %eax,%edx
    31bb:	73 1e                	jae    31db <schedule+0x53>
    31bd:	8b 45 fc             	mov    -0x4(%ebp),%eax
    31c0:	8b 40 76             	mov    0x76(%eax),%eax
    31c3:	89 c2                	mov    %eax,%edx
    31c5:	80 ce 20             	or     $0x20,%dh
    31c8:	8b 45 fc             	mov    -0x4(%ebp),%eax
    31cb:	89 50 76             	mov    %edx,0x76(%eax)
    31ce:	8b 45 fc             	mov    -0x4(%ebp),%eax
    31d1:	c7 80 fa 01 00 00 00 	movl   $0x0,0x1fa(%eax)
    31d8:	00 00 00 
    31db:	81 45 fc 36 03 00 00 	addl   $0x336,-0x4(%ebp)
    31e2:	81 7d fc 66 90 05 00 	cmpl   $0x59066,-0x4(%ebp)
    31e9:	76 b3                	jbe    319e <schedule+0x16>
    31eb:	eb 74                	jmp    3261 <schedule+0xd9>
    31ed:	c7 45 fc c0 0c 05 00 	movl   $0x50cc0,-0x4(%ebp)
    31f4:	eb 2d                	jmp    3223 <schedule+0x9b>
    31f6:	8b 45 fc             	mov    -0x4(%ebp),%eax
    31f9:	8b 40 72             	mov    0x72(%eax),%eax
    31fc:	85 c0                	test   %eax,%eax
    31fe:	75 1c                	jne    321c <schedule+0x94>
    3200:	8b 45 fc             	mov    -0x4(%ebp),%eax
    3203:	8b 40 5a             	mov    0x5a(%eax),%eax
    3206:	3b 45 f8             	cmp    -0x8(%ebp),%eax
    3209:	7e 11                	jle    321c <schedule+0x94>
    320b:	8b 45 fc             	mov    -0x4(%ebp),%eax
    320e:	8b 40 5a             	mov    0x5a(%eax),%eax
    3211:	89 45 f8             	mov    %eax,-0x8(%ebp)
    3214:	8b 45 fc             	mov    -0x4(%ebp),%eax
    3217:	a3 64 ed 04 00       	mov    %eax,0x4ed64
    321c:	81 45 fc 36 03 00 00 	addl   $0x336,-0x4(%ebp)
    3223:	81 7d fc 66 90 05 00 	cmpl   $0x59066,-0x4(%ebp)
    322a:	76 ca                	jbe    31f6 <schedule+0x6e>
    322c:	83 7d f8 00          	cmpl   $0x0,-0x8(%ebp)
    3230:	75 2f                	jne    3261 <schedule+0xd9>
    3232:	c7 45 fc c0 0c 05 00 	movl   $0x50cc0,-0x4(%ebp)
    3239:	eb 1d                	jmp    3258 <schedule+0xd0>
    323b:	8b 45 fc             	mov    -0x4(%ebp),%eax
    323e:	8b 40 72             	mov    0x72(%eax),%eax
    3241:	85 c0                	test   %eax,%eax
    3243:	75 0c                	jne    3251 <schedule+0xc9>
    3245:	8b 45 fc             	mov    -0x4(%ebp),%eax
    3248:	8b 50 5e             	mov    0x5e(%eax),%edx
    324b:	8b 45 fc             	mov    -0x4(%ebp),%eax
    324e:	89 50 5a             	mov    %edx,0x5a(%eax)
    3251:	81 45 fc 36 03 00 00 	addl   $0x336,-0x4(%ebp)
    3258:	81 7d fc 66 90 05 00 	cmpl   $0x59066,-0x4(%ebp)
    325f:	76 da                	jbe    323b <schedule+0xb3>
    3261:	83 7d f8 00          	cmpl   $0x0,-0x8(%ebp)
    3265:	74 86                	je     31ed <schedule+0x65>
    3267:	c9                   	leave  
    3268:	c3                   	ret    

00003269 <do_setuid>:
    3269:	55                   	push   %ebp
    326a:	89 e5                	mov    %esp,%ebp
    326c:	a1 64 ed 04 00       	mov    0x4ed64,%eax
    3271:	8b 15 8c ed 04 00    	mov    0x4ed8c,%edx
    3277:	66 89 90 1e 02 00 00 	mov    %dx,0x21e(%eax)
    327e:	b8 00 00 00 00       	mov    $0x0,%eax
    3283:	5d                   	pop    %ebp
    3284:	c3                   	ret    

00003285 <do_getuid>:
    3285:	55                   	push   %ebp
    3286:	89 e5                	mov    %esp,%ebp
    3288:	a1 64 ed 04 00       	mov    0x4ed64,%eax
    328d:	0f b7 80 1e 02 00 00 	movzwl 0x21e(%eax),%eax
    3294:	0f b7 c0             	movzwl %ax,%eax
    3297:	5d                   	pop    %ebp
    3298:	c3                   	ret    

00003299 <do_setgid>:
    3299:	55                   	push   %ebp
    329a:	89 e5                	mov    %esp,%ebp
    329c:	a1 64 ed 04 00       	mov    0x4ed64,%eax
    32a1:	8b 15 8c ed 04 00    	mov    0x4ed8c,%edx
    32a7:	66 89 90 24 02 00 00 	mov    %dx,0x224(%eax)
    32ae:	b8 00 00 00 00       	mov    $0x0,%eax
    32b3:	5d                   	pop    %ebp
    32b4:	c3                   	ret    

000032b5 <do_getgid>:
    32b5:	55                   	push   %ebp
    32b6:	89 e5                	mov    %esp,%ebp
    32b8:	a1 64 ed 04 00       	mov    0x4ed64,%eax
    32bd:	0f b7 80 24 02 00 00 	movzwl 0x224(%eax),%eax
    32c4:	0f b7 c0             	movzwl %ax,%eax
    32c7:	5d                   	pop    %ebp
    32c8:	c3                   	ret    

000032c9 <do_geteuid>:
    32c9:	55                   	push   %ebp
    32ca:	89 e5                	mov    %esp,%ebp
    32cc:	a1 64 ed 04 00       	mov    0x4ed64,%eax
    32d1:	0f b7 80 20 02 00 00 	movzwl 0x220(%eax),%eax
    32d8:	0f b7 c0             	movzwl %ax,%eax
    32db:	5d                   	pop    %ebp
    32dc:	c3                   	ret    

000032dd <do_getegid>:
    32dd:	55                   	push   %ebp
    32de:	89 e5                	mov    %esp,%ebp
    32e0:	a1 64 ed 04 00       	mov    0x4ed64,%eax
    32e5:	0f b7 80 26 02 00 00 	movzwl 0x226(%eax),%eax
    32ec:	0f b7 c0             	movzwl %ax,%eax
    32ef:	5d                   	pop    %ebp
    32f0:	c3                   	ret    

000032f1 <do_nice>:
    32f1:	55                   	push   %ebp
    32f2:	89 e5                	mov    %esp,%ebp
    32f4:	a1 64 ed 04 00       	mov    0x4ed64,%eax
    32f9:	8b 50 5e             	mov    0x5e(%eax),%edx
    32fc:	a1 8c ed 04 00       	mov    0x4ed8c,%eax
    3301:	89 d1                	mov    %edx,%ecx
    3303:	29 c1                	sub    %eax,%ecx
    3305:	89 c8                	mov    %ecx,%eax
    3307:	85 c0                	test   %eax,%eax
    3309:	7e 21                	jle    332c <do_nice+0x3b>
    330b:	a1 64 ed 04 00       	mov    0x4ed64,%eax
    3310:	8b 15 8c ed 04 00    	mov    0x4ed8c,%edx
    3316:	69 d2 36 03 00 00    	imul   $0x336,%edx,%edx
    331c:	f7 da                	neg    %edx
    331e:	01 d0                	add    %edx,%eax
    3320:	a3 64 ed 04 00       	mov    %eax,0x4ed64
    3325:	b8 00 00 00 00       	mov    $0x0,%eax
    332a:	eb 05                	jmp    3331 <do_nice+0x40>
    332c:	b8 01 00 00 00       	mov    $0x1,%eax
    3331:	5d                   	pop    %ebp
    3332:	c3                   	ret    

00003333 <sys_sendrec>:
    3333:	55                   	push   %ebp
    3334:	89 e5                	mov    %esp,%ebp
    3336:	83 ec 28             	sub    $0x28,%esp
    3339:	a1 88 d6 04 00       	mov    0x4d688,%eax
    333e:	85 c0                	test   %eax,%eax
    3340:	74 24                	je     3366 <sys_sendrec+0x33>
    3342:	c7 44 24 0c 82 00 00 	movl   $0x82,0xc(%esp)
    3349:	00 
    334a:	c7 44 24 08 68 0c 01 	movl   $0x10c68,0x8(%esp)
    3351:	00 
    3352:	c7 44 24 04 68 0c 01 	movl   $0x10c68,0x4(%esp)
    3359:	00 
    335a:	c7 04 24 6f 0c 01 00 	movl   $0x10c6f,(%esp)
    3361:	e8 64 d0 00 00       	call   103ca <assertion_failure>
    3366:	83 7d 0c 00          	cmpl   $0x0,0xc(%ebp)
    336a:	78 06                	js     3372 <sys_sendrec+0x3f>
    336c:	83 7d 0c 29          	cmpl   $0x29,0xc(%ebp)
    3370:	7e 30                	jle    33a2 <sys_sendrec+0x6f>
    3372:	83 7d 0c 34          	cmpl   $0x34,0xc(%ebp)
    3376:	74 2a                	je     33a2 <sys_sendrec+0x6f>
    3378:	83 7d 0c f6          	cmpl   $0xfffffff6,0xc(%ebp)
    337c:	74 24                	je     33a2 <sys_sendrec+0x6f>
    337e:	c7 44 24 0c 85 00 00 	movl   $0x85,0xc(%esp)
    3385:	00 
    3386:	c7 44 24 08 68 0c 01 	movl   $0x10c68,0x8(%esp)
    338d:	00 
    338e:	c7 44 24 04 68 0c 01 	movl   $0x10c68,0x4(%esp)
    3395:	00 
    3396:	c7 04 24 80 0c 01 00 	movl   $0x10c80,(%esp)
    339d:	e8 28 d0 00 00       	call   103ca <assertion_failure>
    33a2:	c7 45 f4 00 00 00 00 	movl   $0x0,-0xc(%ebp)
    33a9:	8b 55 14             	mov    0x14(%ebp),%edx
    33ac:	b8 c0 0c 05 00       	mov    $0x50cc0,%eax
    33b1:	89 d1                	mov    %edx,%ecx
    33b3:	29 c1                	sub    %eax,%ecx
    33b5:	89 c8                	mov    %ecx,%eax
    33b7:	d1 f8                	sar    %eax
    33b9:	69 c0 93 7c 28 ad    	imul   $0xad287c93,%eax,%eax
    33bf:	89 45 f0             	mov    %eax,-0x10(%ebp)
    33c2:	8b 45 10             	mov    0x10(%ebp),%eax
    33c5:	89 44 24 04          	mov    %eax,0x4(%esp)
    33c9:	8b 45 f0             	mov    -0x10(%ebp),%eax
    33cc:	89 04 24             	mov    %eax,(%esp)
    33cf:	e8 01 01 00 00       	call   34d5 <va2la>
    33d4:	89 45 ec             	mov    %eax,-0x14(%ebp)
    33d7:	8b 45 ec             	mov    -0x14(%ebp),%eax
    33da:	8b 55 f0             	mov    -0x10(%ebp),%edx
    33dd:	89 10                	mov    %edx,(%eax)
    33df:	8b 45 ec             	mov    -0x14(%ebp),%eax
    33e2:	8b 00                	mov    (%eax),%eax
    33e4:	3b 45 0c             	cmp    0xc(%ebp),%eax
    33e7:	75 24                	jne    340d <sys_sendrec+0xda>
    33e9:	c7 44 24 0c 8c 00 00 	movl   $0x8c,0xc(%esp)
    33f0:	00 
    33f1:	c7 44 24 08 68 0c 01 	movl   $0x10c68,0x8(%esp)
    33f8:	00 
    33f9:	c7 44 24 04 68 0c 01 	movl   $0x10c68,0x4(%esp)
    3400:	00 
    3401:	c7 04 24 de 0c 01 00 	movl   $0x10cde,(%esp)
    3408:	e8 bd cf 00 00       	call   103ca <assertion_failure>
    340d:	83 7d 08 01          	cmpl   $0x1,0x8(%ebp)
    3411:	75 27                	jne    343a <sys_sendrec+0x107>
    3413:	8b 45 10             	mov    0x10(%ebp),%eax
    3416:	89 44 24 08          	mov    %eax,0x8(%esp)
    341a:	8b 45 0c             	mov    0xc(%ebp),%eax
    341d:	89 44 24 04          	mov    %eax,0x4(%esp)
    3421:	8b 45 14             	mov    0x14(%ebp),%eax
    3424:	89 04 24             	mov    %eax,(%esp)
    3427:	e8 b2 02 00 00       	call   36de <msg_send>
    342c:	89 45 f4             	mov    %eax,-0xc(%ebp)
    342f:	83 7d f4 00          	cmpl   $0x0,-0xc(%ebp)
    3433:	74 55                	je     348a <sys_sendrec+0x157>
    3435:	8b 45 f4             	mov    -0xc(%ebp),%eax
    3438:	eb 55                	jmp    348f <sys_sendrec+0x15c>
    343a:	83 7d 08 02          	cmpl   $0x2,0x8(%ebp)
    343e:	75 27                	jne    3467 <sys_sendrec+0x134>
    3440:	8b 45 10             	mov    0x10(%ebp),%eax
    3443:	89 44 24 08          	mov    %eax,0x8(%esp)
    3447:	8b 45 0c             	mov    0xc(%ebp),%eax
    344a:	89 44 24 04          	mov    %eax,0x4(%esp)
    344e:	8b 45 14             	mov    0x14(%ebp),%eax
    3451:	89 04 24             	mov    %eax,(%esp)
    3454:	e8 71 07 00 00       	call   3bca <msg_receive>
    3459:	89 45 f4             	mov    %eax,-0xc(%ebp)
    345c:	83 7d f4 00          	cmpl   $0x0,-0xc(%ebp)
    3460:	74 28                	je     348a <sys_sendrec+0x157>
    3462:	8b 45 f4             	mov    -0xc(%ebp),%eax
    3465:	eb 28                	jmp    348f <sys_sendrec+0x15c>
    3467:	c7 44 24 0c 02 00 00 	movl   $0x2,0xc(%esp)
    346e:	00 
    346f:	c7 44 24 08 01 00 00 	movl   $0x1,0x8(%esp)
    3476:	00 
    3477:	8b 45 08             	mov    0x8(%ebp),%eax
    347a:	89 44 24 04          	mov    %eax,0x4(%esp)
    347e:	c7 04 24 f8 0c 01 00 	movl   $0x10cf8,(%esp)
    3485:	e8 ad ea ff ff       	call   1f37 <panic>
    348a:	b8 00 00 00 00       	mov    $0x0,%eax
    348f:	c9                   	leave  
    3490:	c3                   	ret    

00003491 <ldt_seg_linear>:
    3491:	55                   	push   %ebp
    3492:	89 e5                	mov    %esp,%ebp
    3494:	83 ec 10             	sub    $0x10,%esp
    3497:	8b 45 08             	mov    0x8(%ebp),%eax
    349a:	8d 50 4a             	lea    0x4a(%eax),%edx
    349d:	8b 45 0c             	mov    0xc(%ebp),%eax
    34a0:	c1 e0 03             	shl    $0x3,%eax
    34a3:	8d 04 02             	lea    (%edx,%eax,1),%eax
    34a6:	89 45 fc             	mov    %eax,-0x4(%ebp)
    34a9:	8b 45 fc             	mov    -0x4(%ebp),%eax
    34ac:	0f b6 40 07          	movzbl 0x7(%eax),%eax
    34b0:	0f b6 c0             	movzbl %al,%eax
    34b3:	89 c2                	mov    %eax,%edx
    34b5:	c1 e2 18             	shl    $0x18,%edx
    34b8:	8b 45 fc             	mov    -0x4(%ebp),%eax
    34bb:	0f b6 40 04          	movzbl 0x4(%eax),%eax
    34bf:	0f b6 c0             	movzbl %al,%eax
    34c2:	c1 e0 10             	shl    $0x10,%eax
    34c5:	09 c2                	or     %eax,%edx
    34c7:	8b 45 fc             	mov    -0x4(%ebp),%eax
    34ca:	0f b7 40 02          	movzwl 0x2(%eax),%eax
    34ce:	0f b7 c0             	movzwl %ax,%eax
    34d1:	09 d0                	or     %edx,%eax
    34d3:	c9                   	leave  
    34d4:	c3                   	ret    

000034d5 <va2la>:
    34d5:	55                   	push   %ebp
    34d6:	89 e5                	mov    %esp,%ebp
    34d8:	83 ec 28             	sub    $0x28,%esp
    34db:	8b 45 08             	mov    0x8(%ebp),%eax
    34de:	69 c0 36 03 00 00    	imul   $0x336,%eax,%eax
    34e4:	05 c0 0c 05 00       	add    $0x50cc0,%eax
    34e9:	89 45 f4             	mov    %eax,-0xc(%ebp)
    34ec:	c7 44 24 04 01 00 00 	movl   $0x1,0x4(%esp)
    34f3:	00 
    34f4:	8b 45 f4             	mov    -0xc(%ebp),%eax
    34f7:	89 04 24             	mov    %eax,(%esp)
    34fa:	e8 92 ff ff ff       	call   3491 <ldt_seg_linear>
    34ff:	89 45 f0             	mov    %eax,-0x10(%ebp)
    3502:	8b 45 0c             	mov    0xc(%ebp),%eax
    3505:	03 45 f0             	add    -0x10(%ebp),%eax
    3508:	89 45 ec             	mov    %eax,-0x14(%ebp)
    350b:	83 7d 08 0d          	cmpl   $0xd,0x8(%ebp)
    350f:	7f 2c                	jg     353d <va2la+0x68>
    3511:	8b 45 0c             	mov    0xc(%ebp),%eax
    3514:	3b 45 ec             	cmp    -0x14(%ebp),%eax
    3517:	74 24                	je     353d <va2la+0x68>
    3519:	c7 44 24 0c cc 00 00 	movl   $0xcc,0xc(%esp)
    3520:	00 
    3521:	c7 44 24 08 68 0c 01 	movl   $0x10c68,0x8(%esp)
    3528:	00 
    3529:	c7 44 24 04 68 0c 01 	movl   $0x10c68,0x4(%esp)
    3530:	00 
    3531:	c7 04 24 32 0d 01 00 	movl   $0x10d32,(%esp)
    3538:	e8 8d ce 00 00       	call   103ca <assertion_failure>
    353d:	8b 45 ec             	mov    -0x14(%ebp),%eax
    3540:	c9                   	leave  
    3541:	c3                   	ret    

00003542 <reset_msg>:
    3542:	55                   	push   %ebp
    3543:	89 e5                	mov    %esp,%ebp
    3545:	83 ec 18             	sub    $0x18,%esp
    3548:	c7 44 24 08 30 00 00 	movl   $0x30,0x8(%esp)
    354f:	00 
    3550:	c7 44 24 04 00 00 00 	movl   $0x0,0x4(%esp)
    3557:	00 
    3558:	8b 45 08             	mov    0x8(%ebp),%eax
    355b:	89 04 24             	mov    %eax,(%esp)
    355e:	e8 bc cb 00 00       	call   1011f <memset>
    3563:	c9                   	leave  
    3564:	c3                   	ret    

00003565 <block>:
    3565:	55                   	push   %ebp
    3566:	89 e5                	mov    %esp,%ebp
    3568:	83 ec 18             	sub    $0x18,%esp
    356b:	8b 45 08             	mov    0x8(%ebp),%eax
    356e:	8b 40 72             	mov    0x72(%eax),%eax
    3571:	85 c0                	test   %eax,%eax
    3573:	75 24                	jne    3599 <block+0x34>
    3575:	c7 44 24 0c ed 00 00 	movl   $0xed,0xc(%esp)
    357c:	00 
    357d:	c7 44 24 08 68 0c 01 	movl   $0x10c68,0x8(%esp)
    3584:	00 
    3585:	c7 44 24 04 68 0c 01 	movl   $0x10c68,0x4(%esp)
    358c:	00 
    358d:	c7 04 24 40 0d 01 00 	movl   $0x10d40,(%esp)
    3594:	e8 31 ce 00 00       	call   103ca <assertion_failure>
    3599:	e8 ea fb ff ff       	call   3188 <schedule>
    359e:	c9                   	leave  
    359f:	c3                   	ret    

000035a0 <unblock>:
    35a0:	55                   	push   %ebp
    35a1:	89 e5                	mov    %esp,%ebp
    35a3:	83 ec 18             	sub    $0x18,%esp
    35a6:	8b 45 08             	mov    0x8(%ebp),%eax
    35a9:	8b 40 72             	mov    0x72(%eax),%eax
    35ac:	85 c0                	test   %eax,%eax
    35ae:	74 24                	je     35d4 <unblock+0x34>
    35b0:	c7 44 24 0c fc 00 00 	movl   $0xfc,0xc(%esp)
    35b7:	00 
    35b8:	c7 44 24 08 68 0c 01 	movl   $0x10c68,0x8(%esp)
    35bf:	00 
    35c0:	c7 44 24 04 68 0c 01 	movl   $0x10c68,0x4(%esp)
    35c7:	00 
    35c8:	c7 04 24 49 0d 01 00 	movl   $0x10d49,(%esp)
    35cf:	e8 f6 cd 00 00       	call   103ca <assertion_failure>
    35d4:	c9                   	leave  
    35d5:	c3                   	ret    

000035d6 <deadlock>:
    35d6:	55                   	push   %ebp
    35d7:	89 e5                	mov    %esp,%ebp
    35d9:	83 ec 28             	sub    $0x28,%esp
    35dc:	8b 45 0c             	mov    0xc(%ebp),%eax
    35df:	69 c0 36 03 00 00    	imul   $0x336,%eax,%eax
    35e5:	05 c0 0c 05 00       	add    $0x50cc0,%eax
    35ea:	89 45 f4             	mov    %eax,-0xc(%ebp)
    35ed:	8b 45 f4             	mov    -0xc(%ebp),%eax
    35f0:	8b 40 72             	mov    0x72(%eax),%eax
    35f3:	83 e0 02             	and    $0x2,%eax
    35f6:	85 c0                	test   %eax,%eax
    35f8:	0f 84 d9 00 00 00    	je     36d7 <deadlock+0x101>
    35fe:	8b 45 f4             	mov    -0xc(%ebp),%eax
    3601:	8b 80 0a 02 00 00    	mov    0x20a(%eax),%eax
    3607:	3b 45 08             	cmp    0x8(%ebp),%eax
    360a:	0f 85 ab 00 00 00    	jne    36bb <deadlock+0xe5>
    3610:	8b 45 0c             	mov    0xc(%ebp),%eax
    3613:	69 c0 36 03 00 00    	imul   $0x336,%eax,%eax
    3619:	05 c0 0c 05 00       	add    $0x50cc0,%eax
    361e:	89 45 f4             	mov    %eax,-0xc(%ebp)
    3621:	8b 45 f4             	mov    -0xc(%ebp),%eax
    3624:	83 c0 62             	add    $0x62,%eax
    3627:	89 44 24 04          	mov    %eax,0x4(%esp)
    362b:	c7 04 24 57 0d 01 00 	movl   $0x10d57,(%esp)
    3632:	e8 53 c7 00 00       	call   fd8a <printl>
    3637:	8b 45 f4             	mov    -0xc(%ebp),%eax
    363a:	8b 80 02 02 00 00    	mov    0x202(%eax),%eax
    3640:	85 c0                	test   %eax,%eax
    3642:	75 24                	jne    3668 <deadlock+0x92>
    3644:	c7 44 24 0c 18 01 00 	movl   $0x118,0xc(%esp)
    364b:	00 
    364c:	c7 44 24 08 68 0c 01 	movl   $0x10c68,0x8(%esp)
    3653:	00 
    3654:	c7 44 24 04 68 0c 01 	movl   $0x10c68,0x4(%esp)
    365b:	00 
    365c:	c7 04 24 5d 0d 01 00 	movl   $0x10d5d,(%esp)
    3663:	e8 62 cd 00 00       	call   103ca <assertion_failure>
    3668:	8b 45 f4             	mov    -0xc(%ebp),%eax
    366b:	8b 80 0a 02 00 00    	mov    0x20a(%eax),%eax
    3671:	69 c0 36 03 00 00    	imul   $0x336,%eax,%eax
    3677:	05 c0 0c 05 00       	add    $0x50cc0,%eax
    367c:	89 45 f4             	mov    %eax,-0xc(%ebp)
    367f:	8b 45 f4             	mov    -0xc(%ebp),%eax
    3682:	83 c0 62             	add    $0x62,%eax
    3685:	89 44 24 04          	mov    %eax,0x4(%esp)
    3689:	c7 04 24 64 0d 01 00 	movl   $0x10d64,(%esp)
    3690:	e8 f5 c6 00 00       	call   fd8a <printl>
    3695:	8b 45 08             	mov    0x8(%ebp),%eax
    3698:	69 c0 36 03 00 00    	imul   $0x336,%eax,%eax
    369e:	05 c0 0c 05 00       	add    $0x50cc0,%eax
    36a3:	3b 45 f4             	cmp    -0xc(%ebp),%eax
    36a6:	75 8f                	jne    3637 <deadlock+0x61>
    36a8:	c7 04 24 69 0d 01 00 	movl   $0x10d69,(%esp)
    36af:	e8 d6 c6 00 00       	call   fd8a <printl>
    36b4:	b8 01 00 00 00       	mov    $0x1,%eax
    36b9:	eb 21                	jmp    36dc <deadlock+0x106>
    36bb:	8b 45 f4             	mov    -0xc(%ebp),%eax
    36be:	8b 80 0a 02 00 00    	mov    0x20a(%eax),%eax
    36c4:	69 c0 36 03 00 00    	imul   $0x336,%eax,%eax
    36ca:	05 c0 0c 05 00       	add    $0x50cc0,%eax
    36cf:	89 45 f4             	mov    %eax,-0xc(%ebp)
    36d2:	e9 16 ff ff ff       	jmp    35ed <deadlock+0x17>
    36d7:	b8 00 00 00 00       	mov    $0x0,%eax
    36dc:	c9                   	leave  
    36dd:	c3                   	ret    

000036de <msg_send>:
    36de:	55                   	push   %ebp
    36df:	89 e5                	mov    %esp,%ebp
    36e1:	53                   	push   %ebx
    36e2:	83 ec 24             	sub    $0x24,%esp
    36e5:	8b 45 08             	mov    0x8(%ebp),%eax
    36e8:	89 45 f0             	mov    %eax,-0x10(%ebp)
    36eb:	8b 45 0c             	mov    0xc(%ebp),%eax
    36ee:	69 c0 36 03 00 00    	imul   $0x336,%eax,%eax
    36f4:	05 c0 0c 05 00       	add    $0x50cc0,%eax
    36f9:	89 45 ec             	mov    %eax,-0x14(%ebp)
    36fc:	8b 55 f0             	mov    -0x10(%ebp),%edx
    36ff:	b8 c0 0c 05 00       	mov    $0x50cc0,%eax
    3704:	89 d1                	mov    %edx,%ecx
    3706:	29 c1                	sub    %eax,%ecx
    3708:	89 c8                	mov    %ecx,%eax
    370a:	d1 f8                	sar    %eax
    370c:	69 c0 93 7c 28 ad    	imul   $0xad287c93,%eax,%eax
    3712:	3b 45 0c             	cmp    0xc(%ebp),%eax
    3715:	75 24                	jne    373b <msg_send+0x5d>
    3717:	c7 44 24 0c 3c 01 00 	movl   $0x13c,0xc(%esp)
    371e:	00 
    371f:	c7 44 24 08 68 0c 01 	movl   $0x10c68,0x8(%esp)
    3726:	00 
    3727:	c7 44 24 04 68 0c 01 	movl   $0x10c68,0x4(%esp)
    372e:	00 
    372f:	c7 04 24 6d 0d 01 00 	movl   $0x10d6d,(%esp)
    3736:	e8 8f cc 00 00       	call   103ca <assertion_failure>
    373b:	8b 55 f0             	mov    -0x10(%ebp),%edx
    373e:	b8 c0 0c 05 00       	mov    $0x50cc0,%eax
    3743:	89 d3                	mov    %edx,%ebx
    3745:	29 c3                	sub    %eax,%ebx
    3747:	89 d8                	mov    %ebx,%eax
    3749:	d1 f8                	sar    %eax
    374b:	69 c0 93 7c 28 ad    	imul   $0xad287c93,%eax,%eax
    3751:	8b 55 0c             	mov    0xc(%ebp),%edx
    3754:	89 54 24 04          	mov    %edx,0x4(%esp)
    3758:	89 04 24             	mov    %eax,(%esp)
    375b:	e8 76 fe ff ff       	call   35d6 <deadlock>
    3760:	85 c0                	test   %eax,%eax
    3762:	74 20                	je     3784 <msg_send+0xa6>
    3764:	8b 45 ec             	mov    -0x14(%ebp),%eax
    3767:	8d 50 62             	lea    0x62(%eax),%edx
    376a:	8b 45 f0             	mov    -0x10(%ebp),%eax
    376d:	83 c0 62             	add    $0x62,%eax
    3770:	89 54 24 08          	mov    %edx,0x8(%esp)
    3774:	89 44 24 04          	mov    %eax,0x4(%esp)
    3778:	c7 04 24 86 0d 01 00 	movl   $0x10d86,(%esp)
    377f:	e8 b3 e7 ff ff       	call   1f37 <panic>
    3784:	8b 45 ec             	mov    -0x14(%ebp),%eax
    3787:	8b 40 72             	mov    0x72(%eax),%eax
    378a:	83 e0 04             	and    $0x4,%eax
    378d:	85 c0                	test   %eax,%eax
    378f:	0f 84 a8 02 00 00    	je     3a3d <msg_send+0x35f>
    3795:	8b 45 ec             	mov    -0x14(%ebp),%eax
    3798:	8b 90 06 02 00 00    	mov    0x206(%eax),%edx
    379e:	8b 4d f0             	mov    -0x10(%ebp),%ecx
    37a1:	b8 c0 0c 05 00       	mov    $0x50cc0,%eax
    37a6:	89 cb                	mov    %ecx,%ebx
    37a8:	29 c3                	sub    %eax,%ebx
    37aa:	89 d8                	mov    %ebx,%eax
    37ac:	d1 f8                	sar    %eax
    37ae:	69 c0 93 7c 28 ad    	imul   $0xad287c93,%eax,%eax
    37b4:	39 c2                	cmp    %eax,%edx
    37b6:	74 12                	je     37ca <msg_send+0xec>
    37b8:	8b 45 ec             	mov    -0x14(%ebp),%eax
    37bb:	8b 80 06 02 00 00    	mov    0x206(%eax),%eax
    37c1:	83 f8 34             	cmp    $0x34,%eax
    37c4:	0f 85 73 02 00 00    	jne    3a3d <msg_send+0x35f>
    37ca:	8b 45 ec             	mov    -0x14(%ebp),%eax
    37cd:	8b 80 02 02 00 00    	mov    0x202(%eax),%eax
    37d3:	85 c0                	test   %eax,%eax
    37d5:	75 24                	jne    37fb <msg_send+0x11d>
    37d7:	c7 44 24 0c 46 01 00 	movl   $0x146,0xc(%esp)
    37de:	00 
    37df:	c7 44 24 08 68 0c 01 	movl   $0x10c68,0x8(%esp)
    37e6:	00 
    37e7:	c7 44 24 04 68 0c 01 	movl   $0x10c68,0x4(%esp)
    37ee:	00 
    37ef:	c7 04 24 9a 0d 01 00 	movl   $0x10d9a,(%esp)
    37f6:	e8 cf cb 00 00       	call   103ca <assertion_failure>
    37fb:	83 7d 10 00          	cmpl   $0x0,0x10(%ebp)
    37ff:	75 24                	jne    3825 <msg_send+0x147>
    3801:	c7 44 24 0c 47 01 00 	movl   $0x147,0xc(%esp)
    3808:	00 
    3809:	c7 44 24 08 68 0c 01 	movl   $0x10c68,0x8(%esp)
    3810:	00 
    3811:	c7 44 24 04 68 0c 01 	movl   $0x10c68,0x4(%esp)
    3818:	00 
    3819:	c7 04 24 a6 0d 01 00 	movl   $0x10da6,(%esp)
    3820:	e8 a5 cb 00 00       	call   103ca <assertion_failure>
    3825:	8b 55 f0             	mov    -0x10(%ebp),%edx
    3828:	b8 c0 0c 05 00       	mov    $0x50cc0,%eax
    382d:	89 d1                	mov    %edx,%ecx
    382f:	29 c1                	sub    %eax,%ecx
    3831:	89 c8                	mov    %ecx,%eax
    3833:	d1 f8                	sar    %eax
    3835:	69 c0 93 7c 28 ad    	imul   $0xad287c93,%eax,%eax
    383b:	8b 55 10             	mov    0x10(%ebp),%edx
    383e:	89 54 24 04          	mov    %edx,0x4(%esp)
    3842:	89 04 24             	mov    %eax,(%esp)
    3845:	e8 8b fc ff ff       	call   34d5 <va2la>
    384a:	89 c3                	mov    %eax,%ebx
    384c:	8b 45 ec             	mov    -0x14(%ebp),%eax
    384f:	8b 80 02 02 00 00    	mov    0x202(%eax),%eax
    3855:	89 44 24 04          	mov    %eax,0x4(%esp)
    3859:	8b 45 0c             	mov    0xc(%ebp),%eax
    385c:	89 04 24             	mov    %eax,(%esp)
    385f:	e8 71 fc ff ff       	call   34d5 <va2la>
    3864:	c7 44 24 08 30 00 00 	movl   $0x30,0x8(%esp)
    386b:	00 
    386c:	89 5c 24 04          	mov    %ebx,0x4(%esp)
    3870:	89 04 24             	mov    %eax,(%esp)
    3873:	e8 78 c8 00 00       	call   100f0 <memcpy>
    3878:	8b 45 ec             	mov    -0x14(%ebp),%eax
    387b:	c7 80 02 02 00 00 00 	movl   $0x0,0x202(%eax)
    3882:	00 00 00 
    3885:	8b 45 ec             	mov    -0x14(%ebp),%eax
    3888:	8b 40 72             	mov    0x72(%eax),%eax
    388b:	89 c2                	mov    %eax,%edx
    388d:	83 e2 fb             	and    $0xfffffffb,%edx
    3890:	8b 45 ec             	mov    -0x14(%ebp),%eax
    3893:	89 50 72             	mov    %edx,0x72(%eax)
    3896:	8b 45 ec             	mov    -0x14(%ebp),%eax
    3899:	c7 80 06 02 00 00 3e 	movl   $0x3e,0x206(%eax)
    38a0:	00 00 00 
    38a3:	8b 45 ec             	mov    -0x14(%ebp),%eax
    38a6:	89 04 24             	mov    %eax,(%esp)
    38a9:	e8 f2 fc ff ff       	call   35a0 <unblock>
    38ae:	8b 45 ec             	mov    -0x14(%ebp),%eax
    38b1:	8b 40 72             	mov    0x72(%eax),%eax
    38b4:	85 c0                	test   %eax,%eax
    38b6:	74 24                	je     38dc <msg_send+0x1fe>
    38b8:	c7 44 24 0c 51 01 00 	movl   $0x151,0xc(%esp)
    38bf:	00 
    38c0:	c7 44 24 08 68 0c 01 	movl   $0x10c68,0x8(%esp)
    38c7:	00 
    38c8:	c7 44 24 04 68 0c 01 	movl   $0x10c68,0x4(%esp)
    38cf:	00 
    38d0:	c7 04 24 a8 0d 01 00 	movl   $0x10da8,(%esp)
    38d7:	e8 ee ca 00 00       	call   103ca <assertion_failure>
    38dc:	8b 45 ec             	mov    -0x14(%ebp),%eax
    38df:	8b 80 02 02 00 00    	mov    0x202(%eax),%eax
    38e5:	85 c0                	test   %eax,%eax
    38e7:	74 24                	je     390d <msg_send+0x22f>
    38e9:	c7 44 24 0c 52 01 00 	movl   $0x152,0xc(%esp)
    38f0:	00 
    38f1:	c7 44 24 08 68 0c 01 	movl   $0x10c68,0x8(%esp)
    38f8:	00 
    38f9:	c7 44 24 04 68 0c 01 	movl   $0x10c68,0x4(%esp)
    3900:	00 
    3901:	c7 04 24 bb 0d 01 00 	movl   $0x10dbb,(%esp)
    3908:	e8 bd ca 00 00       	call   103ca <assertion_failure>
    390d:	8b 45 ec             	mov    -0x14(%ebp),%eax
    3910:	8b 80 06 02 00 00    	mov    0x206(%eax),%eax
    3916:	83 f8 3e             	cmp    $0x3e,%eax
    3919:	74 24                	je     393f <msg_send+0x261>
    391b:	c7 44 24 0c 53 01 00 	movl   $0x153,0xc(%esp)
    3922:	00 
    3923:	c7 44 24 08 68 0c 01 	movl   $0x10c68,0x8(%esp)
    392a:	00 
    392b:	c7 44 24 04 68 0c 01 	movl   $0x10c68,0x4(%esp)
    3932:	00 
    3933:	c7 04 24 cc 0d 01 00 	movl   $0x10dcc,(%esp)
    393a:	e8 8b ca 00 00       	call   103ca <assertion_failure>
    393f:	8b 45 ec             	mov    -0x14(%ebp),%eax
    3942:	8b 80 0a 02 00 00    	mov    0x20a(%eax),%eax
    3948:	83 f8 3e             	cmp    $0x3e,%eax
    394b:	74 24                	je     3971 <msg_send+0x293>
    394d:	c7 44 24 0c 54 01 00 	movl   $0x154,0xc(%esp)
    3954:	00 
    3955:	c7 44 24 08 68 0c 01 	movl   $0x10c68,0x8(%esp)
    395c:	00 
    395d:	c7 44 24 04 68 0c 01 	movl   $0x10c68,0x4(%esp)
    3964:	00 
    3965:	c7 04 24 e8 0d 01 00 	movl   $0x10de8,(%esp)
    396c:	e8 59 ca 00 00       	call   103ca <assertion_failure>
    3971:	8b 45 f0             	mov    -0x10(%ebp),%eax
    3974:	8b 40 72             	mov    0x72(%eax),%eax
    3977:	85 c0                	test   %eax,%eax
    3979:	74 24                	je     399f <msg_send+0x2c1>
    397b:	c7 44 24 0c 55 01 00 	movl   $0x155,0xc(%esp)
    3982:	00 
    3983:	c7 44 24 08 68 0c 01 	movl   $0x10c68,0x8(%esp)
    398a:	00 
    398b:	c7 44 24 04 68 0c 01 	movl   $0x10c68,0x4(%esp)
    3992:	00 
    3993:	c7 04 24 02 0e 01 00 	movl   $0x10e02,(%esp)
    399a:	e8 2b ca 00 00       	call   103ca <assertion_failure>
    399f:	8b 45 f0             	mov    -0x10(%ebp),%eax
    39a2:	8b 80 02 02 00 00    	mov    0x202(%eax),%eax
    39a8:	85 c0                	test   %eax,%eax
    39aa:	74 24                	je     39d0 <msg_send+0x2f2>
    39ac:	c7 44 24 0c 56 01 00 	movl   $0x156,0xc(%esp)
    39b3:	00 
    39b4:	c7 44 24 08 68 0c 01 	movl   $0x10c68,0x8(%esp)
    39bb:	00 
    39bc:	c7 44 24 04 68 0c 01 	movl   $0x10c68,0x4(%esp)
    39c3:	00 
    39c4:	c7 04 24 15 0e 01 00 	movl   $0x10e15,(%esp)
    39cb:	e8 fa c9 00 00       	call   103ca <assertion_failure>
    39d0:	8b 45 f0             	mov    -0x10(%ebp),%eax
    39d3:	8b 80 06 02 00 00    	mov    0x206(%eax),%eax
    39d9:	83 f8 3e             	cmp    $0x3e,%eax
    39dc:	74 24                	je     3a02 <msg_send+0x324>
    39de:	c7 44 24 0c 57 01 00 	movl   $0x157,0xc(%esp)
    39e5:	00 
    39e6:	c7 44 24 08 68 0c 01 	movl   $0x10c68,0x8(%esp)
    39ed:	00 
    39ee:	c7 44 24 04 68 0c 01 	movl   $0x10c68,0x4(%esp)
    39f5:	00 
    39f6:	c7 04 24 26 0e 01 00 	movl   $0x10e26,(%esp)
    39fd:	e8 c8 c9 00 00       	call   103ca <assertion_failure>
    3a02:	8b 45 f0             	mov    -0x10(%ebp),%eax
    3a05:	8b 80 0a 02 00 00    	mov    0x20a(%eax),%eax
    3a0b:	83 f8 3e             	cmp    $0x3e,%eax
    3a0e:	0f 84 ab 01 00 00    	je     3bbf <msg_send+0x4e1>
    3a14:	c7 44 24 0c 58 01 00 	movl   $0x158,0xc(%esp)
    3a1b:	00 
    3a1c:	c7 44 24 08 68 0c 01 	movl   $0x10c68,0x8(%esp)
    3a23:	00 
    3a24:	c7 44 24 04 68 0c 01 	movl   $0x10c68,0x4(%esp)
    3a2b:	00 
    3a2c:	c7 04 24 42 0e 01 00 	movl   $0x10e42,(%esp)
    3a33:	e8 92 c9 00 00       	call   103ca <assertion_failure>
    3a38:	e9 82 01 00 00       	jmp    3bbf <msg_send+0x4e1>
    3a3d:	8b 45 f0             	mov    -0x10(%ebp),%eax
    3a40:	8b 40 72             	mov    0x72(%eax),%eax
    3a43:	89 c2                	mov    %eax,%edx
    3a45:	83 ca 02             	or     $0x2,%edx
    3a48:	8b 45 f0             	mov    -0x10(%ebp),%eax
    3a4b:	89 50 72             	mov    %edx,0x72(%eax)
    3a4e:	8b 45 f0             	mov    -0x10(%ebp),%eax
    3a51:	8b 40 72             	mov    0x72(%eax),%eax
    3a54:	83 f8 02             	cmp    $0x2,%eax
    3a57:	74 24                	je     3a7d <msg_send+0x39f>
    3a59:	c7 44 24 0c 5c 01 00 	movl   $0x15c,0xc(%esp)
    3a60:	00 
    3a61:	c7 44 24 08 68 0c 01 	movl   $0x10c68,0x8(%esp)
    3a68:	00 
    3a69:	c7 44 24 04 68 0c 01 	movl   $0x10c68,0x4(%esp)
    3a70:	00 
    3a71:	c7 04 24 5c 0e 01 00 	movl   $0x10e5c,(%esp)
    3a78:	e8 4d c9 00 00       	call   103ca <assertion_failure>
    3a7d:	8b 45 f0             	mov    -0x10(%ebp),%eax
    3a80:	8b 55 0c             	mov    0xc(%ebp),%edx
    3a83:	89 90 0a 02 00 00    	mov    %edx,0x20a(%eax)
    3a89:	8b 45 f0             	mov    -0x10(%ebp),%eax
    3a8c:	8b 55 10             	mov    0x10(%ebp),%edx
    3a8f:	89 90 02 02 00 00    	mov    %edx,0x202(%eax)
    3a95:	8b 45 ec             	mov    -0x14(%ebp),%eax
    3a98:	8b 80 12 02 00 00    	mov    0x212(%eax),%eax
    3a9e:	85 c0                	test   %eax,%eax
    3aa0:	74 35                	je     3ad7 <msg_send+0x3f9>
    3aa2:	8b 45 ec             	mov    -0x14(%ebp),%eax
    3aa5:	8b 80 12 02 00 00    	mov    0x212(%eax),%eax
    3aab:	89 45 f4             	mov    %eax,-0xc(%ebp)
    3aae:	eb 0c                	jmp    3abc <msg_send+0x3de>
    3ab0:	8b 45 f4             	mov    -0xc(%ebp),%eax
    3ab3:	8b 80 16 02 00 00    	mov    0x216(%eax),%eax
    3ab9:	89 45 f4             	mov    %eax,-0xc(%ebp)
    3abc:	8b 45 f4             	mov    -0xc(%ebp),%eax
    3abf:	8b 80 16 02 00 00    	mov    0x216(%eax),%eax
    3ac5:	85 c0                	test   %eax,%eax
    3ac7:	75 e7                	jne    3ab0 <msg_send+0x3d2>
    3ac9:	8b 45 f4             	mov    -0xc(%ebp),%eax
    3acc:	8b 55 f0             	mov    -0x10(%ebp),%edx
    3acf:	89 90 16 02 00 00    	mov    %edx,0x216(%eax)
    3ad5:	eb 0c                	jmp    3ae3 <msg_send+0x405>
    3ad7:	8b 45 ec             	mov    -0x14(%ebp),%eax
    3ada:	8b 55 f0             	mov    -0x10(%ebp),%edx
    3add:	89 90 12 02 00 00    	mov    %edx,0x212(%eax)
    3ae3:	8b 45 f0             	mov    -0x10(%ebp),%eax
    3ae6:	c7 80 16 02 00 00 00 	movl   $0x0,0x216(%eax)
    3aed:	00 00 00 
    3af0:	8b 45 f0             	mov    -0x10(%ebp),%eax
    3af3:	89 04 24             	mov    %eax,(%esp)
    3af6:	e8 6a fa ff ff       	call   3565 <block>
    3afb:	8b 45 f0             	mov    -0x10(%ebp),%eax
    3afe:	8b 40 72             	mov    0x72(%eax),%eax
    3b01:	83 f8 02             	cmp    $0x2,%eax
    3b04:	74 24                	je     3b2a <msg_send+0x44c>
    3b06:	c7 44 24 0c 6f 01 00 	movl   $0x16f,0xc(%esp)
    3b0d:	00 
    3b0e:	c7 44 24 08 68 0c 01 	movl   $0x10c68,0x8(%esp)
    3b15:	00 
    3b16:	c7 44 24 04 68 0c 01 	movl   $0x10c68,0x4(%esp)
    3b1d:	00 
    3b1e:	c7 04 24 5c 0e 01 00 	movl   $0x10e5c,(%esp)
    3b25:	e8 a0 c8 00 00       	call   103ca <assertion_failure>
    3b2a:	8b 45 f0             	mov    -0x10(%ebp),%eax
    3b2d:	8b 80 02 02 00 00    	mov    0x202(%eax),%eax
    3b33:	85 c0                	test   %eax,%eax
    3b35:	75 24                	jne    3b5b <msg_send+0x47d>
    3b37:	c7 44 24 0c 70 01 00 	movl   $0x170,0xc(%esp)
    3b3e:	00 
    3b3f:	c7 44 24 08 68 0c 01 	movl   $0x10c68,0x8(%esp)
    3b46:	00 
    3b47:	c7 44 24 04 68 0c 01 	movl   $0x10c68,0x4(%esp)
    3b4e:	00 
    3b4f:	c7 04 24 75 0e 01 00 	movl   $0x10e75,(%esp)
    3b56:	e8 6f c8 00 00       	call   103ca <assertion_failure>
    3b5b:	8b 45 f0             	mov    -0x10(%ebp),%eax
    3b5e:	8b 80 06 02 00 00    	mov    0x206(%eax),%eax
    3b64:	83 f8 3e             	cmp    $0x3e,%eax
    3b67:	74 24                	je     3b8d <msg_send+0x4af>
    3b69:	c7 44 24 0c 71 01 00 	movl   $0x171,0xc(%esp)
    3b70:	00 
    3b71:	c7 44 24 08 68 0c 01 	movl   $0x10c68,0x8(%esp)
    3b78:	00 
    3b79:	c7 44 24 04 68 0c 01 	movl   $0x10c68,0x4(%esp)
    3b80:	00 
    3b81:	c7 04 24 26 0e 01 00 	movl   $0x10e26,(%esp)
    3b88:	e8 3d c8 00 00       	call   103ca <assertion_failure>
    3b8d:	8b 45 f0             	mov    -0x10(%ebp),%eax
    3b90:	8b 80 0a 02 00 00    	mov    0x20a(%eax),%eax
    3b96:	3b 45 0c             	cmp    0xc(%ebp),%eax
    3b99:	74 24                	je     3bbf <msg_send+0x4e1>
    3b9b:	c7 44 24 0c 72 01 00 	movl   $0x172,0xc(%esp)
    3ba2:	00 
    3ba3:	c7 44 24 08 68 0c 01 	movl   $0x10c68,0x8(%esp)
    3baa:	00 
    3bab:	c7 44 24 04 68 0c 01 	movl   $0x10c68,0x4(%esp)
    3bb2:	00 
    3bb3:	c7 04 24 86 0e 01 00 	movl   $0x10e86,(%esp)
    3bba:	e8 0b c8 00 00       	call   103ca <assertion_failure>
    3bbf:	b8 00 00 00 00       	mov    $0x0,%eax
    3bc4:	83 c4 24             	add    $0x24,%esp
    3bc7:	5b                   	pop    %ebx
    3bc8:	5d                   	pop    %ebp
    3bc9:	c3                   	ret    

00003bca <msg_receive>:
    3bca:	55                   	push   %ebp
    3bcb:	89 e5                	mov    %esp,%ebp
    3bcd:	53                   	push   %ebx
    3bce:	83 ec 64             	sub    $0x64,%esp
    3bd1:	8b 45 08             	mov    0x8(%ebp),%eax
    3bd4:	89 45 e4             	mov    %eax,-0x1c(%ebp)
    3bd7:	c7 45 f4 00 00 00 00 	movl   $0x0,-0xc(%ebp)
    3bde:	c7 45 f0 00 00 00 00 	movl   $0x0,-0x10(%ebp)
    3be5:	c7 45 ec 00 00 00 00 	movl   $0x0,-0x14(%ebp)
    3bec:	8b 55 e4             	mov    -0x1c(%ebp),%edx
    3bef:	b8 c0 0c 05 00       	mov    $0x50cc0,%eax
    3bf4:	89 d1                	mov    %edx,%ecx
    3bf6:	29 c1                	sub    %eax,%ecx
    3bf8:	89 c8                	mov    %ecx,%eax
    3bfa:	d1 f8                	sar    %eax
    3bfc:	69 c0 93 7c 28 ad    	imul   $0xad287c93,%eax,%eax
    3c02:	3b 45 0c             	cmp    0xc(%ebp),%eax
    3c05:	75 24                	jne    3c2b <msg_receive+0x61>
    3c07:	c7 44 24 0c 93 01 00 	movl   $0x193,0xc(%esp)
    3c0e:	00 
    3c0f:	c7 44 24 08 68 0c 01 	movl   $0x10c68,0x8(%esp)
    3c16:	00 
    3c17:	c7 44 24 04 68 0c 01 	movl   $0x10c68,0x4(%esp)
    3c1e:	00 
    3c1f:	c7 04 24 a0 0e 01 00 	movl   $0x10ea0,(%esp)
    3c26:	e8 9f c7 00 00       	call   103ca <assertion_failure>
    3c2b:	8b 45 e4             	mov    -0x1c(%ebp),%eax
    3c2e:	8b 80 0e 02 00 00    	mov    0x20e(%eax),%eax
    3c34:	85 c0                	test   %eax,%eax
    3c36:	0f 84 68 01 00 00    	je     3da4 <msg_receive+0x1da>
    3c3c:	83 7d 0c 34          	cmpl   $0x34,0xc(%ebp)
    3c40:	74 0a                	je     3c4c <msg_receive+0x82>
    3c42:	83 7d 0c f6          	cmpl   $0xfffffff6,0xc(%ebp)
    3c46:	0f 85 58 01 00 00    	jne    3da4 <msg_receive+0x1da>
    3c4c:	8d 45 b4             	lea    -0x4c(%ebp),%eax
    3c4f:	89 04 24             	mov    %eax,(%esp)
    3c52:	e8 eb f8 ff ff       	call   3542 <reset_msg>
    3c57:	c7 45 b4 f6 ff ff ff 	movl   $0xfffffff6,-0x4c(%ebp)
    3c5e:	c7 45 b8 01 00 00 00 	movl   $0x1,-0x48(%ebp)
    3c65:	83 7d 10 00          	cmpl   $0x0,0x10(%ebp)
    3c69:	75 24                	jne    3c8f <msg_receive+0xc5>
    3c6b:	c7 44 24 0c 9f 01 00 	movl   $0x19f,0xc(%esp)
    3c72:	00 
    3c73:	c7 44 24 08 68 0c 01 	movl   $0x10c68,0x8(%esp)
    3c7a:	00 
    3c7b:	c7 44 24 04 68 0c 01 	movl   $0x10c68,0x4(%esp)
    3c82:	00 
    3c83:	c7 04 24 a6 0d 01 00 	movl   $0x10da6,(%esp)
    3c8a:	e8 3b c7 00 00       	call   103ca <assertion_failure>
    3c8f:	8b 55 e4             	mov    -0x1c(%ebp),%edx
    3c92:	b8 c0 0c 05 00       	mov    $0x50cc0,%eax
    3c97:	89 d3                	mov    %edx,%ebx
    3c99:	29 c3                	sub    %eax,%ebx
    3c9b:	89 d8                	mov    %ebx,%eax
    3c9d:	d1 f8                	sar    %eax
    3c9f:	69 c0 93 7c 28 ad    	imul   $0xad287c93,%eax,%eax
    3ca5:	8b 55 10             	mov    0x10(%ebp),%edx
    3ca8:	89 54 24 04          	mov    %edx,0x4(%esp)
    3cac:	89 04 24             	mov    %eax,(%esp)
    3caf:	e8 21 f8 ff ff       	call   34d5 <va2la>
    3cb4:	c7 44 24 08 30 00 00 	movl   $0x30,0x8(%esp)
    3cbb:	00 
    3cbc:	8d 55 b4             	lea    -0x4c(%ebp),%edx
    3cbf:	89 54 24 04          	mov    %edx,0x4(%esp)
    3cc3:	89 04 24             	mov    %eax,(%esp)
    3cc6:	e8 25 c4 00 00       	call   100f0 <memcpy>
    3ccb:	8b 45 e4             	mov    -0x1c(%ebp),%eax
    3cce:	c7 80 0e 02 00 00 00 	movl   $0x0,0x20e(%eax)
    3cd5:	00 00 00 
    3cd8:	8b 45 e4             	mov    -0x1c(%ebp),%eax
    3cdb:	8b 40 72             	mov    0x72(%eax),%eax
    3cde:	85 c0                	test   %eax,%eax
    3ce0:	74 24                	je     3d06 <msg_receive+0x13c>
    3ce2:	c7 44 24 0c a5 01 00 	movl   $0x1a5,0xc(%esp)
    3ce9:	00 
    3cea:	c7 44 24 08 68 0c 01 	movl   $0x10c68,0x8(%esp)
    3cf1:	00 
    3cf2:	c7 44 24 04 68 0c 01 	movl   $0x10c68,0x4(%esp)
    3cf9:	00 
    3cfa:	c7 04 24 c0 0e 01 00 	movl   $0x10ec0,(%esp)
    3d01:	e8 c4 c6 00 00       	call   103ca <assertion_failure>
    3d06:	8b 45 e4             	mov    -0x1c(%ebp),%eax
    3d09:	8b 80 02 02 00 00    	mov    0x202(%eax),%eax
    3d0f:	85 c0                	test   %eax,%eax
    3d11:	74 24                	je     3d37 <msg_receive+0x16d>
    3d13:	c7 44 24 0c a6 01 00 	movl   $0x1a6,0xc(%esp)
    3d1a:	00 
    3d1b:	c7 44 24 08 68 0c 01 	movl   $0x10c68,0x8(%esp)
    3d22:	00 
    3d23:	c7 44 24 04 68 0c 01 	movl   $0x10c68,0x4(%esp)
    3d2a:	00 
    3d2b:	c7 04 24 db 0e 01 00 	movl   $0x10edb,(%esp)
    3d32:	e8 93 c6 00 00       	call   103ca <assertion_failure>
    3d37:	8b 45 e4             	mov    -0x1c(%ebp),%eax
    3d3a:	8b 80 0a 02 00 00    	mov    0x20a(%eax),%eax
    3d40:	83 f8 3e             	cmp    $0x3e,%eax
    3d43:	74 24                	je     3d69 <msg_receive+0x19f>
    3d45:	c7 44 24 0c a7 01 00 	movl   $0x1a7,0xc(%esp)
    3d4c:	00 
    3d4d:	c7 44 24 08 68 0c 01 	movl   $0x10c68,0x8(%esp)
    3d54:	00 
    3d55:	c7 44 24 04 68 0c 01 	movl   $0x10c68,0x4(%esp)
    3d5c:	00 
    3d5d:	c7 04 24 f4 0e 01 00 	movl   $0x10ef4,(%esp)
    3d64:	e8 61 c6 00 00       	call   103ca <assertion_failure>
    3d69:	8b 45 e4             	mov    -0x1c(%ebp),%eax
    3d6c:	8b 80 0e 02 00 00    	mov    0x20e(%eax),%eax
    3d72:	85 c0                	test   %eax,%eax
    3d74:	74 24                	je     3d9a <msg_receive+0x1d0>
    3d76:	c7 44 24 0c a8 01 00 	movl   $0x1a8,0xc(%esp)
    3d7d:	00 
    3d7e:	c7 44 24 08 68 0c 01 	movl   $0x10c68,0x8(%esp)
    3d85:	00 
    3d86:	c7 44 24 04 68 0c 01 	movl   $0x10c68,0x4(%esp)
    3d8d:	00 
    3d8e:	c7 04 24 18 0f 01 00 	movl   $0x10f18,(%esp)
    3d95:	e8 30 c6 00 00       	call   103ca <assertion_failure>
    3d9a:	b8 00 00 00 00       	mov    $0x0,%eax
    3d9f:	e9 c9 07 00 00       	jmp    456d <msg_receive+0x9a3>
    3da4:	83 7d 0c 34          	cmpl   $0x34,0xc(%ebp)
    3da8:	0f 85 fa 01 00 00    	jne    3fa8 <msg_receive+0x3de>
    3dae:	8b 45 e4             	mov    -0x1c(%ebp),%eax
    3db1:	8b 80 12 02 00 00    	mov    0x212(%eax),%eax
    3db7:	85 c0                	test   %eax,%eax
    3db9:	0f 84 ae 04 00 00    	je     426d <msg_receive+0x6a3>
    3dbf:	8b 45 e4             	mov    -0x1c(%ebp),%eax
    3dc2:	8b 80 12 02 00 00    	mov    0x212(%eax),%eax
    3dc8:	89 45 f4             	mov    %eax,-0xc(%ebp)
    3dcb:	c7 45 ec 01 00 00 00 	movl   $0x1,-0x14(%ebp)
    3dd2:	8b 45 e4             	mov    -0x1c(%ebp),%eax
    3dd5:	8b 40 72             	mov    0x72(%eax),%eax
    3dd8:	85 c0                	test   %eax,%eax
    3dda:	74 24                	je     3e00 <msg_receive+0x236>
    3ddc:	c7 44 24 0c b8 01 00 	movl   $0x1b8,0xc(%esp)
    3de3:	00 
    3de4:	c7 44 24 08 68 0c 01 	movl   $0x10c68,0x8(%esp)
    3deb:	00 
    3dec:	c7 44 24 04 68 0c 01 	movl   $0x10c68,0x4(%esp)
    3df3:	00 
    3df4:	c7 04 24 c0 0e 01 00 	movl   $0x10ec0,(%esp)
    3dfb:	e8 ca c5 00 00       	call   103ca <assertion_failure>
    3e00:	8b 45 e4             	mov    -0x1c(%ebp),%eax
    3e03:	8b 80 02 02 00 00    	mov    0x202(%eax),%eax
    3e09:	85 c0                	test   %eax,%eax
    3e0b:	74 24                	je     3e31 <msg_receive+0x267>
    3e0d:	c7 44 24 0c b9 01 00 	movl   $0x1b9,0xc(%esp)
    3e14:	00 
    3e15:	c7 44 24 08 68 0c 01 	movl   $0x10c68,0x8(%esp)
    3e1c:	00 
    3e1d:	c7 44 24 04 68 0c 01 	movl   $0x10c68,0x4(%esp)
    3e24:	00 
    3e25:	c7 04 24 db 0e 01 00 	movl   $0x10edb,(%esp)
    3e2c:	e8 99 c5 00 00       	call   103ca <assertion_failure>
    3e31:	8b 45 e4             	mov    -0x1c(%ebp),%eax
    3e34:	8b 80 06 02 00 00    	mov    0x206(%eax),%eax
    3e3a:	83 f8 3e             	cmp    $0x3e,%eax
    3e3d:	74 24                	je     3e63 <msg_receive+0x299>
    3e3f:	c7 44 24 0c ba 01 00 	movl   $0x1ba,0xc(%esp)
    3e46:	00 
    3e47:	c7 44 24 08 68 0c 01 	movl   $0x10c68,0x8(%esp)
    3e4e:	00 
    3e4f:	c7 44 24 04 68 0c 01 	movl   $0x10c68,0x4(%esp)
    3e56:	00 
    3e57:	c7 04 24 3c 0f 01 00 	movl   $0x10f3c,(%esp)
    3e5e:	e8 67 c5 00 00       	call   103ca <assertion_failure>
    3e63:	8b 45 e4             	mov    -0x1c(%ebp),%eax
    3e66:	8b 80 0a 02 00 00    	mov    0x20a(%eax),%eax
    3e6c:	83 f8 3e             	cmp    $0x3e,%eax
    3e6f:	74 24                	je     3e95 <msg_receive+0x2cb>
    3e71:	c7 44 24 0c bb 01 00 	movl   $0x1bb,0xc(%esp)
    3e78:	00 
    3e79:	c7 44 24 08 68 0c 01 	movl   $0x10c68,0x8(%esp)
    3e80:	00 
    3e81:	c7 44 24 04 68 0c 01 	movl   $0x10c68,0x4(%esp)
    3e88:	00 
    3e89:	c7 04 24 f4 0e 01 00 	movl   $0x10ef4,(%esp)
    3e90:	e8 35 c5 00 00       	call   103ca <assertion_failure>
    3e95:	8b 45 e4             	mov    -0x1c(%ebp),%eax
    3e98:	8b 80 12 02 00 00    	mov    0x212(%eax),%eax
    3e9e:	85 c0                	test   %eax,%eax
    3ea0:	75 24                	jne    3ec6 <msg_receive+0x2fc>
    3ea2:	c7 44 24 0c bc 01 00 	movl   $0x1bc,0xc(%esp)
    3ea9:	00 
    3eaa:	c7 44 24 08 68 0c 01 	movl   $0x10c68,0x8(%esp)
    3eb1:	00 
    3eb2:	c7 44 24 04 68 0c 01 	movl   $0x10c68,0x4(%esp)
    3eb9:	00 
    3eba:	c7 04 24 60 0f 01 00 	movl   $0x10f60,(%esp)
    3ec1:	e8 04 c5 00 00       	call   103ca <assertion_failure>
    3ec6:	8b 45 f4             	mov    -0xc(%ebp),%eax
    3ec9:	8b 40 72             	mov    0x72(%eax),%eax
    3ecc:	83 f8 02             	cmp    $0x2,%eax
    3ecf:	74 24                	je     3ef5 <msg_receive+0x32b>
    3ed1:	c7 44 24 0c bd 01 00 	movl   $0x1bd,0xc(%esp)
    3ed8:	00 
    3ed9:	c7 44 24 08 68 0c 01 	movl   $0x10c68,0x8(%esp)
    3ee0:	00 
    3ee1:	c7 44 24 04 68 0c 01 	movl   $0x10c68,0x4(%esp)
    3ee8:	00 
    3ee9:	c7 04 24 7f 0f 01 00 	movl   $0x10f7f,(%esp)
    3ef0:	e8 d5 c4 00 00       	call   103ca <assertion_failure>
    3ef5:	8b 45 f4             	mov    -0xc(%ebp),%eax
    3ef8:	8b 80 02 02 00 00    	mov    0x202(%eax),%eax
    3efe:	85 c0                	test   %eax,%eax
    3f00:	75 24                	jne    3f26 <msg_receive+0x35c>
    3f02:	c7 44 24 0c be 01 00 	movl   $0x1be,0xc(%esp)
    3f09:	00 
    3f0a:	c7 44 24 08 68 0c 01 	movl   $0x10c68,0x8(%esp)
    3f11:	00 
    3f12:	c7 44 24 04 68 0c 01 	movl   $0x10c68,0x4(%esp)
    3f19:	00 
    3f1a:	c7 04 24 96 0f 01 00 	movl   $0x10f96,(%esp)
    3f21:	e8 a4 c4 00 00       	call   103ca <assertion_failure>
    3f26:	8b 45 f4             	mov    -0xc(%ebp),%eax
    3f29:	8b 80 06 02 00 00    	mov    0x206(%eax),%eax
    3f2f:	83 f8 3e             	cmp    $0x3e,%eax
    3f32:	74 24                	je     3f58 <msg_receive+0x38e>
    3f34:	c7 44 24 0c bf 01 00 	movl   $0x1bf,0xc(%esp)
    3f3b:	00 
    3f3c:	c7 44 24 08 68 0c 01 	movl   $0x10c68,0x8(%esp)
    3f43:	00 
    3f44:	c7 44 24 04 68 0c 01 	movl   $0x10c68,0x4(%esp)
    3f4b:	00 
    3f4c:	c7 04 24 a5 0f 01 00 	movl   $0x10fa5,(%esp)
    3f53:	e8 72 c4 00 00       	call   103ca <assertion_failure>
    3f58:	8b 45 f4             	mov    -0xc(%ebp),%eax
    3f5b:	8b 90 0a 02 00 00    	mov    0x20a(%eax),%edx
    3f61:	8b 4d e4             	mov    -0x1c(%ebp),%ecx
    3f64:	b8 c0 0c 05 00       	mov    $0x50cc0,%eax
    3f69:	89 cb                	mov    %ecx,%ebx
    3f6b:	29 c3                	sub    %eax,%ebx
    3f6d:	89 d8                	mov    %ebx,%eax
    3f6f:	d1 f8                	sar    %eax
    3f71:	69 c0 93 7c 28 ad    	imul   $0xad287c93,%eax,%eax
    3f77:	39 c2                	cmp    %eax,%edx
    3f79:	0f 84 ee 02 00 00    	je     426d <msg_receive+0x6a3>
    3f7f:	c7 44 24 0c c0 01 00 	movl   $0x1c0,0xc(%esp)
    3f86:	00 
    3f87:	c7 44 24 08 68 0c 01 	movl   $0x10c68,0x8(%esp)
    3f8e:	00 
    3f8f:	c7 44 24 04 68 0c 01 	movl   $0x10c68,0x4(%esp)
    3f96:	00 
    3f97:	c7 04 24 c0 0f 01 00 	movl   $0x10fc0,(%esp)
    3f9e:	e8 27 c4 00 00       	call   103ca <assertion_failure>
    3fa3:	e9 c5 02 00 00       	jmp    426d <msg_receive+0x6a3>
    3fa8:	8b 45 0c             	mov    0xc(%ebp),%eax
    3fab:	69 c0 36 03 00 00    	imul   $0x336,%eax,%eax
    3fb1:	05 c0 0c 05 00       	add    $0x50cc0,%eax
    3fb6:	89 45 f4             	mov    %eax,-0xc(%ebp)
    3fb9:	8b 45 f4             	mov    -0xc(%ebp),%eax
    3fbc:	8b 40 72             	mov    0x72(%eax),%eax
    3fbf:	83 e0 02             	and    $0x2,%eax
    3fc2:	85 c0                	test   %eax,%eax
    3fc4:	0f 84 a3 02 00 00    	je     426d <msg_receive+0x6a3>
    3fca:	8b 45 f4             	mov    -0xc(%ebp),%eax
    3fcd:	8b 90 0a 02 00 00    	mov    0x20a(%eax),%edx
    3fd3:	8b 4d e4             	mov    -0x1c(%ebp),%ecx
    3fd6:	b8 c0 0c 05 00       	mov    $0x50cc0,%eax
    3fdb:	89 cb                	mov    %ecx,%ebx
    3fdd:	29 c3                	sub    %eax,%ebx
    3fdf:	89 d8                	mov    %ebx,%eax
    3fe1:	d1 f8                	sar    %eax
    3fe3:	69 c0 93 7c 28 ad    	imul   $0xad287c93,%eax,%eax
    3fe9:	39 c2                	cmp    %eax,%edx
    3feb:	0f 85 7c 02 00 00    	jne    426d <msg_receive+0x6a3>
    3ff1:	c7 45 ec 01 00 00 00 	movl   $0x1,-0x14(%ebp)
    3ff8:	8b 45 e4             	mov    -0x1c(%ebp),%eax
    3ffb:	8b 80 12 02 00 00    	mov    0x212(%eax),%eax
    4001:	89 45 e8             	mov    %eax,-0x18(%ebp)
    4004:	83 7d e8 00          	cmpl   $0x0,-0x18(%ebp)
    4008:	0f 85 8c 00 00 00    	jne    409a <msg_receive+0x4d0>
    400e:	c7 44 24 0c d1 01 00 	movl   $0x1d1,0xc(%esp)
    4015:	00 
    4016:	c7 44 24 08 68 0c 01 	movl   $0x10c68,0x8(%esp)
    401d:	00 
    401e:	c7 44 24 04 68 0c 01 	movl   $0x10c68,0x4(%esp)
    4025:	00 
    4026:	c7 04 24 e9 0f 01 00 	movl   $0x10fe9,(%esp)
    402d:	e8 98 c3 00 00       	call   103ca <assertion_failure>
    4032:	eb 66                	jmp    409a <msg_receive+0x4d0>
    4034:	8b 45 f4             	mov    -0xc(%ebp),%eax
    4037:	8b 40 72             	mov    0x72(%eax),%eax
    403a:	83 e0 02             	and    $0x2,%eax
    403d:	85 c0                	test   %eax,%eax
    403f:	75 24                	jne    4065 <msg_receive+0x49b>
    4041:	c7 44 24 0c d5 01 00 	movl   $0x1d5,0xc(%esp)
    4048:	00 
    4049:	c7 44 24 08 68 0c 01 	movl   $0x10c68,0x8(%esp)
    4050:	00 
    4051:	c7 44 24 04 68 0c 01 	movl   $0x10c68,0x4(%esp)
    4058:	00 
    4059:	c7 04 24 eb 0f 01 00 	movl   $0x10feb,(%esp)
    4060:	e8 65 c3 00 00       	call   103ca <assertion_failure>
    4065:	8b 55 e8             	mov    -0x18(%ebp),%edx
    4068:	b8 c0 0c 05 00       	mov    $0x50cc0,%eax
    406d:	89 d1                	mov    %edx,%ecx
    406f:	29 c1                	sub    %eax,%ecx
    4071:	89 c8                	mov    %ecx,%eax
    4073:	d1 f8                	sar    %eax
    4075:	69 c0 93 7c 28 ad    	imul   $0xad287c93,%eax,%eax
    407b:	3b 45 0c             	cmp    0xc(%ebp),%eax
    407e:	75 08                	jne    4088 <msg_receive+0x4be>
    4080:	8b 45 e8             	mov    -0x18(%ebp),%eax
    4083:	89 45 f4             	mov    %eax,-0xc(%ebp)
    4086:	eb 18                	jmp    40a0 <msg_receive+0x4d6>
    4088:	8b 45 e8             	mov    -0x18(%ebp),%eax
    408b:	89 45 f0             	mov    %eax,-0x10(%ebp)
    408e:	8b 45 e8             	mov    -0x18(%ebp),%eax
    4091:	8b 80 16 02 00 00    	mov    0x216(%eax),%eax
    4097:	89 45 e8             	mov    %eax,-0x18(%ebp)
    409a:	83 7d e8 00          	cmpl   $0x0,-0x18(%ebp)
    409e:	75 94                	jne    4034 <msg_receive+0x46a>
    40a0:	8b 45 e4             	mov    -0x1c(%ebp),%eax
    40a3:	8b 40 72             	mov    0x72(%eax),%eax
    40a6:	85 c0                	test   %eax,%eax
    40a8:	74 24                	je     40ce <msg_receive+0x504>
    40aa:	c7 44 24 0c de 01 00 	movl   $0x1de,0xc(%esp)
    40b1:	00 
    40b2:	c7 44 24 08 68 0c 01 	movl   $0x10c68,0x8(%esp)
    40b9:	00 
    40ba:	c7 44 24 04 68 0c 01 	movl   $0x10c68,0x4(%esp)
    40c1:	00 
    40c2:	c7 04 24 c0 0e 01 00 	movl   $0x10ec0,(%esp)
    40c9:	e8 fc c2 00 00       	call   103ca <assertion_failure>
    40ce:	8b 45 e4             	mov    -0x1c(%ebp),%eax
    40d1:	8b 80 02 02 00 00    	mov    0x202(%eax),%eax
    40d7:	85 c0                	test   %eax,%eax
    40d9:	74 24                	je     40ff <msg_receive+0x535>
    40db:	c7 44 24 0c df 01 00 	movl   $0x1df,0xc(%esp)
    40e2:	00 
    40e3:	c7 44 24 08 68 0c 01 	movl   $0x10c68,0x8(%esp)
    40ea:	00 
    40eb:	c7 44 24 04 68 0c 01 	movl   $0x10c68,0x4(%esp)
    40f2:	00 
    40f3:	c7 04 24 db 0e 01 00 	movl   $0x10edb,(%esp)
    40fa:	e8 cb c2 00 00       	call   103ca <assertion_failure>
    40ff:	8b 45 e4             	mov    -0x1c(%ebp),%eax
    4102:	8b 80 06 02 00 00    	mov    0x206(%eax),%eax
    4108:	83 f8 3e             	cmp    $0x3e,%eax
    410b:	74 24                	je     4131 <msg_receive+0x567>
    410d:	c7 44 24 0c e0 01 00 	movl   $0x1e0,0xc(%esp)
    4114:	00 
    4115:	c7 44 24 08 68 0c 01 	movl   $0x10c68,0x8(%esp)
    411c:	00 
    411d:	c7 44 24 04 68 0c 01 	movl   $0x10c68,0x4(%esp)
    4124:	00 
    4125:	c7 04 24 3c 0f 01 00 	movl   $0x10f3c,(%esp)
    412c:	e8 99 c2 00 00       	call   103ca <assertion_failure>
    4131:	8b 45 e4             	mov    -0x1c(%ebp),%eax
    4134:	8b 80 0a 02 00 00    	mov    0x20a(%eax),%eax
    413a:	83 f8 3e             	cmp    $0x3e,%eax
    413d:	74 24                	je     4163 <msg_receive+0x599>
    413f:	c7 44 24 0c e1 01 00 	movl   $0x1e1,0xc(%esp)
    4146:	00 
    4147:	c7 44 24 08 68 0c 01 	movl   $0x10c68,0x8(%esp)
    414e:	00 
    414f:	c7 44 24 04 68 0c 01 	movl   $0x10c68,0x4(%esp)
    4156:	00 
    4157:	c7 04 24 f4 0e 01 00 	movl   $0x10ef4,(%esp)
    415e:	e8 67 c2 00 00       	call   103ca <assertion_failure>
    4163:	8b 45 e4             	mov    -0x1c(%ebp),%eax
    4166:	8b 80 12 02 00 00    	mov    0x212(%eax),%eax
    416c:	85 c0                	test   %eax,%eax
    416e:	75 24                	jne    4194 <msg_receive+0x5ca>
    4170:	c7 44 24 0c e2 01 00 	movl   $0x1e2,0xc(%esp)
    4177:	00 
    4178:	c7 44 24 08 68 0c 01 	movl   $0x10c68,0x8(%esp)
    417f:	00 
    4180:	c7 44 24 04 68 0c 01 	movl   $0x10c68,0x4(%esp)
    4187:	00 
    4188:	c7 04 24 60 0f 01 00 	movl   $0x10f60,(%esp)
    418f:	e8 36 c2 00 00       	call   103ca <assertion_failure>
    4194:	8b 45 f4             	mov    -0xc(%ebp),%eax
    4197:	8b 40 72             	mov    0x72(%eax),%eax
    419a:	83 f8 02             	cmp    $0x2,%eax
    419d:	74 24                	je     41c3 <msg_receive+0x5f9>
    419f:	c7 44 24 0c e3 01 00 	movl   $0x1e3,0xc(%esp)
    41a6:	00 
    41a7:	c7 44 24 08 68 0c 01 	movl   $0x10c68,0x8(%esp)
    41ae:	00 
    41af:	c7 44 24 04 68 0c 01 	movl   $0x10c68,0x4(%esp)
    41b6:	00 
    41b7:	c7 04 24 7f 0f 01 00 	movl   $0x10f7f,(%esp)
    41be:	e8 07 c2 00 00       	call   103ca <assertion_failure>
    41c3:	8b 45 f4             	mov    -0xc(%ebp),%eax
    41c6:	8b 80 02 02 00 00    	mov    0x202(%eax),%eax
    41cc:	85 c0                	test   %eax,%eax
    41ce:	75 24                	jne    41f4 <msg_receive+0x62a>
    41d0:	c7 44 24 0c e4 01 00 	movl   $0x1e4,0xc(%esp)
    41d7:	00 
    41d8:	c7 44 24 08 68 0c 01 	movl   $0x10c68,0x8(%esp)
    41df:	00 
    41e0:	c7 44 24 04 68 0c 01 	movl   $0x10c68,0x4(%esp)
    41e7:	00 
    41e8:	c7 04 24 96 0f 01 00 	movl   $0x10f96,(%esp)
    41ef:	e8 d6 c1 00 00       	call   103ca <assertion_failure>
    41f4:	8b 45 f4             	mov    -0xc(%ebp),%eax
    41f7:	8b 80 06 02 00 00    	mov    0x206(%eax),%eax
    41fd:	83 f8 3e             	cmp    $0x3e,%eax
    4200:	74 24                	je     4226 <msg_receive+0x65c>
    4202:	c7 44 24 0c e5 01 00 	movl   $0x1e5,0xc(%esp)
    4209:	00 
    420a:	c7 44 24 08 68 0c 01 	movl   $0x10c68,0x8(%esp)
    4211:	00 
    4212:	c7 44 24 04 68 0c 01 	movl   $0x10c68,0x4(%esp)
    4219:	00 
    421a:	c7 04 24 a5 0f 01 00 	movl   $0x10fa5,(%esp)
    4221:	e8 a4 c1 00 00       	call   103ca <assertion_failure>
    4226:	8b 45 f4             	mov    -0xc(%ebp),%eax
    4229:	8b 90 0a 02 00 00    	mov    0x20a(%eax),%edx
    422f:	8b 4d e4             	mov    -0x1c(%ebp),%ecx
    4232:	b8 c0 0c 05 00       	mov    $0x50cc0,%eax
    4237:	89 cb                	mov    %ecx,%ebx
    4239:	29 c3                	sub    %eax,%ebx
    423b:	89 d8                	mov    %ebx,%eax
    423d:	d1 f8                	sar    %eax
    423f:	69 c0 93 7c 28 ad    	imul   $0xad287c93,%eax,%eax
    4245:	39 c2                	cmp    %eax,%edx
    4247:	74 24                	je     426d <msg_receive+0x6a3>
    4249:	c7 44 24 0c e6 01 00 	movl   $0x1e6,0xc(%esp)
    4250:	00 
    4251:	c7 44 24 08 68 0c 01 	movl   $0x10c68,0x8(%esp)
    4258:	00 
    4259:	c7 44 24 04 68 0c 01 	movl   $0x10c68,0x4(%esp)
    4260:	00 
    4261:	c7 04 24 c0 0f 01 00 	movl   $0x10fc0,(%esp)
    4268:	e8 5d c1 00 00       	call   103ca <assertion_failure>
    426d:	83 7d ec 00          	cmpl   $0x0,-0x14(%ebp)
    4271:	0f 84 9e 01 00 00    	je     4415 <msg_receive+0x84b>
    4277:	8b 45 e4             	mov    -0x1c(%ebp),%eax
    427a:	8b 80 12 02 00 00    	mov    0x212(%eax),%eax
    4280:	3b 45 f4             	cmp    -0xc(%ebp),%eax
    4283:	75 4b                	jne    42d0 <msg_receive+0x706>
    4285:	83 7d f0 00          	cmpl   $0x0,-0x10(%ebp)
    4289:	74 24                	je     42af <msg_receive+0x6e5>
    428b:	c7 44 24 0c f1 01 00 	movl   $0x1f1,0xc(%esp)
    4292:	00 
    4293:	c7 44 24 08 68 0c 01 	movl   $0x10c68,0x8(%esp)
    429a:	00 
    429b:	c7 44 24 04 68 0c 01 	movl   $0x10c68,0x4(%esp)
    42a2:	00 
    42a3:	c7 04 24 01 10 01 00 	movl   $0x11001,(%esp)
    42aa:	e8 1b c1 00 00       	call   103ca <assertion_failure>
    42af:	8b 45 f4             	mov    -0xc(%ebp),%eax
    42b2:	8b 90 16 02 00 00    	mov    0x216(%eax),%edx
    42b8:	8b 45 e4             	mov    -0x1c(%ebp),%eax
    42bb:	89 90 12 02 00 00    	mov    %edx,0x212(%eax)
    42c1:	8b 45 f4             	mov    -0xc(%ebp),%eax
    42c4:	c7 80 16 02 00 00 00 	movl   $0x0,0x216(%eax)
    42cb:	00 00 00 
    42ce:	eb 49                	jmp    4319 <msg_receive+0x74f>
    42d0:	83 7d f0 00          	cmpl   $0x0,-0x10(%ebp)
    42d4:	75 24                	jne    42fa <msg_receive+0x730>
    42d6:	c7 44 24 0c f6 01 00 	movl   $0x1f6,0xc(%esp)
    42dd:	00 
    42de:	c7 44 24 08 68 0c 01 	movl   $0x10c68,0x8(%esp)
    42e5:	00 
    42e6:	c7 44 24 04 68 0c 01 	movl   $0x10c68,0x4(%esp)
    42ed:	00 
    42ee:	c7 04 24 0b 10 01 00 	movl   $0x1100b,(%esp)
    42f5:	e8 d0 c0 00 00       	call   103ca <assertion_failure>
    42fa:	8b 45 f4             	mov    -0xc(%ebp),%eax
    42fd:	8b 90 16 02 00 00    	mov    0x216(%eax),%edx
    4303:	8b 45 f0             	mov    -0x10(%ebp),%eax
    4306:	89 90 16 02 00 00    	mov    %edx,0x216(%eax)
    430c:	8b 45 f4             	mov    -0xc(%ebp),%eax
    430f:	c7 80 16 02 00 00 00 	movl   $0x0,0x216(%eax)
    4316:	00 00 00 
    4319:	83 7d 10 00          	cmpl   $0x0,0x10(%ebp)
    431d:	75 24                	jne    4343 <msg_receive+0x779>
    431f:	c7 44 24 0c fb 01 00 	movl   $0x1fb,0xc(%esp)
    4326:	00 
    4327:	c7 44 24 08 68 0c 01 	movl   $0x10c68,0x8(%esp)
    432e:	00 
    432f:	c7 44 24 04 68 0c 01 	movl   $0x10c68,0x4(%esp)
    4336:	00 
    4337:	c7 04 24 a6 0d 01 00 	movl   $0x10da6,(%esp)
    433e:	e8 87 c0 00 00       	call   103ca <assertion_failure>
    4343:	8b 45 f4             	mov    -0xc(%ebp),%eax
    4346:	8b 80 02 02 00 00    	mov    0x202(%eax),%eax
    434c:	85 c0                	test   %eax,%eax
    434e:	75 24                	jne    4374 <msg_receive+0x7aa>
    4350:	c7 44 24 0c fc 01 00 	movl   $0x1fc,0xc(%esp)
    4357:	00 
    4358:	c7 44 24 08 68 0c 01 	movl   $0x10c68,0x8(%esp)
    435f:	00 
    4360:	c7 44 24 04 68 0c 01 	movl   $0x10c68,0x4(%esp)
    4367:	00 
    4368:	c7 04 24 10 10 01 00 	movl   $0x11010,(%esp)
    436f:	e8 56 c0 00 00       	call   103ca <assertion_failure>
    4374:	8b 45 f4             	mov    -0xc(%ebp),%eax
    4377:	8b 90 02 02 00 00    	mov    0x202(%eax),%edx
    437d:	8b 4d f4             	mov    -0xc(%ebp),%ecx
    4380:	b8 c0 0c 05 00       	mov    $0x50cc0,%eax
    4385:	89 cb                	mov    %ecx,%ebx
    4387:	29 c3                	sub    %eax,%ebx
    4389:	89 d8                	mov    %ebx,%eax
    438b:	d1 f8                	sar    %eax
    438d:	69 c0 93 7c 28 ad    	imul   $0xad287c93,%eax,%eax
    4393:	89 54 24 04          	mov    %edx,0x4(%esp)
    4397:	89 04 24             	mov    %eax,(%esp)
    439a:	e8 36 f1 ff ff       	call   34d5 <va2la>
    439f:	89 c3                	mov    %eax,%ebx
    43a1:	8b 55 e4             	mov    -0x1c(%ebp),%edx
    43a4:	b8 c0 0c 05 00       	mov    $0x50cc0,%eax
    43a9:	89 d1                	mov    %edx,%ecx
    43ab:	29 c1                	sub    %eax,%ecx
    43ad:	89 c8                	mov    %ecx,%eax
    43af:	d1 f8                	sar    %eax
    43b1:	69 c0 93 7c 28 ad    	imul   $0xad287c93,%eax,%eax
    43b7:	8b 55 10             	mov    0x10(%ebp),%edx
    43ba:	89 54 24 04          	mov    %edx,0x4(%esp)
    43be:	89 04 24             	mov    %eax,(%esp)
    43c1:	e8 0f f1 ff ff       	call   34d5 <va2la>
    43c6:	c7 44 24 08 30 00 00 	movl   $0x30,0x8(%esp)
    43cd:	00 
    43ce:	89 5c 24 04          	mov    %ebx,0x4(%esp)
    43d2:	89 04 24             	mov    %eax,(%esp)
    43d5:	e8 16 bd 00 00       	call   100f0 <memcpy>
    43da:	8b 45 f4             	mov    -0xc(%ebp),%eax
    43dd:	c7 80 02 02 00 00 00 	movl   $0x0,0x202(%eax)
    43e4:	00 00 00 
    43e7:	8b 45 f4             	mov    -0xc(%ebp),%eax
    43ea:	c7 80 0a 02 00 00 3e 	movl   $0x3e,0x20a(%eax)
    43f1:	00 00 00 
    43f4:	8b 45 f4             	mov    -0xc(%ebp),%eax
    43f7:	8b 40 72             	mov    0x72(%eax),%eax
    43fa:	89 c2                	mov    %eax,%edx
    43fc:	83 e2 fd             	and    $0xfffffffd,%edx
    43ff:	8b 45 f4             	mov    -0xc(%ebp),%eax
    4402:	89 50 72             	mov    %edx,0x72(%eax)
    4405:	8b 45 f4             	mov    -0xc(%ebp),%eax
    4408:	89 04 24             	mov    %eax,(%esp)
    440b:	e8 90 f1 ff ff       	call   35a0 <unblock>
    4410:	e9 53 01 00 00       	jmp    4568 <msg_receive+0x99e>
    4415:	8b 45 e4             	mov    -0x1c(%ebp),%eax
    4418:	8b 40 72             	mov    0x72(%eax),%eax
    441b:	89 c2                	mov    %eax,%edx
    441d:	83 ca 04             	or     $0x4,%edx
    4420:	8b 45 e4             	mov    -0x1c(%ebp),%eax
    4423:	89 50 72             	mov    %edx,0x72(%eax)
    4426:	8b 45 e4             	mov    -0x1c(%ebp),%eax
    4429:	8b 55 10             	mov    0x10(%ebp),%edx
    442c:	89 90 02 02 00 00    	mov    %edx,0x202(%eax)
    4432:	83 7d 0c 34          	cmpl   $0x34,0xc(%ebp)
    4436:	75 0f                	jne    4447 <msg_receive+0x87d>
    4438:	8b 45 e4             	mov    -0x1c(%ebp),%eax
    443b:	c7 80 06 02 00 00 34 	movl   $0x34,0x206(%eax)
    4442:	00 00 00 
    4445:	eb 21                	jmp    4468 <msg_receive+0x89e>
    4447:	8b 55 f4             	mov    -0xc(%ebp),%edx
    444a:	b8 c0 0c 05 00       	mov    $0x50cc0,%eax
    444f:	89 d3                	mov    %edx,%ebx
    4451:	29 c3                	sub    %eax,%ebx
    4453:	89 d8                	mov    %ebx,%eax
    4455:	d1 f8                	sar    %eax
    4457:	69 c0 93 7c 28 ad    	imul   $0xad287c93,%eax,%eax
    445d:	89 c2                	mov    %eax,%edx
    445f:	8b 45 e4             	mov    -0x1c(%ebp),%eax
    4462:	89 90 06 02 00 00    	mov    %edx,0x206(%eax)
    4468:	8b 45 e4             	mov    -0x1c(%ebp),%eax
    446b:	89 04 24             	mov    %eax,(%esp)
    446e:	e8 f2 f0 ff ff       	call   3565 <block>
    4473:	8b 45 e4             	mov    -0x1c(%ebp),%eax
    4476:	8b 40 72             	mov    0x72(%eax),%eax
    4479:	83 f8 04             	cmp    $0x4,%eax
    447c:	74 24                	je     44a2 <msg_receive+0x8d8>
    447e:	c7 44 24 0c 16 02 00 	movl   $0x216,0xc(%esp)
    4485:	00 
    4486:	c7 44 24 08 68 0c 01 	movl   $0x10c68,0x8(%esp)
    448d:	00 
    448e:	c7 44 24 04 68 0c 01 	movl   $0x10c68,0x4(%esp)
    4495:	00 
    4496:	c7 04 24 1c 10 01 00 	movl   $0x1101c,(%esp)
    449d:	e8 28 bf 00 00       	call   103ca <assertion_failure>
    44a2:	8b 45 e4             	mov    -0x1c(%ebp),%eax
    44a5:	8b 80 02 02 00 00    	mov    0x202(%eax),%eax
    44ab:	85 c0                	test   %eax,%eax
    44ad:	75 24                	jne    44d3 <msg_receive+0x909>
    44af:	c7 44 24 0c 17 02 00 	movl   $0x217,0xc(%esp)
    44b6:	00 
    44b7:	c7 44 24 08 68 0c 01 	movl   $0x10c68,0x8(%esp)
    44be:	00 
    44bf:	c7 44 24 04 68 0c 01 	movl   $0x10c68,0x4(%esp)
    44c6:	00 
    44c7:	c7 04 24 3f 10 01 00 	movl   $0x1103f,(%esp)
    44ce:	e8 f7 be 00 00       	call   103ca <assertion_failure>
    44d3:	8b 45 e4             	mov    -0x1c(%ebp),%eax
    44d6:	8b 80 06 02 00 00    	mov    0x206(%eax),%eax
    44dc:	83 f8 3e             	cmp    $0x3e,%eax
    44df:	75 24                	jne    4505 <msg_receive+0x93b>
    44e1:	c7 44 24 0c 18 02 00 	movl   $0x218,0xc(%esp)
    44e8:	00 
    44e9:	c7 44 24 08 68 0c 01 	movl   $0x10c68,0x8(%esp)
    44f0:	00 
    44f1:	c7 44 24 04 68 0c 01 	movl   $0x10c68,0x4(%esp)
    44f8:	00 
    44f9:	c7 04 24 58 10 01 00 	movl   $0x11058,(%esp)
    4500:	e8 c5 be 00 00       	call   103ca <assertion_failure>
    4505:	8b 45 e4             	mov    -0x1c(%ebp),%eax
    4508:	8b 80 0a 02 00 00    	mov    0x20a(%eax),%eax
    450e:	83 f8 3e             	cmp    $0x3e,%eax
    4511:	74 24                	je     4537 <msg_receive+0x96d>
    4513:	c7 44 24 0c 19 02 00 	movl   $0x219,0xc(%esp)
    451a:	00 
    451b:	c7 44 24 08 68 0c 01 	movl   $0x10c68,0x8(%esp)
    4522:	00 
    4523:	c7 44 24 04 68 0c 01 	movl   $0x10c68,0x4(%esp)
    452a:	00 
    452b:	c7 04 24 f4 0e 01 00 	movl   $0x10ef4,(%esp)
    4532:	e8 93 be 00 00       	call   103ca <assertion_failure>
    4537:	8b 45 e4             	mov    -0x1c(%ebp),%eax
    453a:	8b 80 0e 02 00 00    	mov    0x20e(%eax),%eax
    4540:	85 c0                	test   %eax,%eax
    4542:	74 24                	je     4568 <msg_receive+0x99e>
    4544:	c7 44 24 0c 1a 02 00 	movl   $0x21a,0xc(%esp)
    454b:	00 
    454c:	c7 44 24 08 68 0c 01 	movl   $0x10c68,0x8(%esp)
    4553:	00 
    4554:	c7 44 24 04 68 0c 01 	movl   $0x10c68,0x4(%esp)
    455b:	00 
    455c:	c7 04 24 18 0f 01 00 	movl   $0x10f18,(%esp)
    4563:	e8 62 be 00 00       	call   103ca <assertion_failure>
    4568:	b8 00 00 00 00       	mov    $0x0,%eax
    456d:	83 c4 64             	add    $0x64,%esp
    4570:	5b                   	pop    %ebx
    4571:	5d                   	pop    %ebp
    4572:	c3                   	ret    

00004573 <inform_int>:
    4573:	55                   	push   %ebp
    4574:	89 e5                	mov    %esp,%ebp
    4576:	83 ec 28             	sub    $0x28,%esp
    4579:	8b 45 08             	mov    0x8(%ebp),%eax
    457c:	69 c0 36 03 00 00    	imul   $0x336,%eax,%eax
    4582:	05 c0 0c 05 00       	add    $0x50cc0,%eax
    4587:	89 45 f4             	mov    %eax,-0xc(%ebp)
    458a:	8b 45 f4             	mov    -0xc(%ebp),%eax
    458d:	8b 40 72             	mov    0x72(%eax),%eax
    4590:	83 e0 04             	and    $0x4,%eax
    4593:	85 c0                	test   %eax,%eax
    4595:	0f 84 75 01 00 00    	je     4710 <inform_int+0x19d>
    459b:	8b 45 f4             	mov    -0xc(%ebp),%eax
    459e:	8b 80 06 02 00 00    	mov    0x206(%eax),%eax
    45a4:	83 f8 f6             	cmp    $0xfffffff6,%eax
    45a7:	74 12                	je     45bb <inform_int+0x48>
    45a9:	8b 45 f4             	mov    -0xc(%ebp),%eax
    45ac:	8b 80 06 02 00 00    	mov    0x206(%eax),%eax
    45b2:	83 f8 34             	cmp    $0x34,%eax
    45b5:	0f 85 55 01 00 00    	jne    4710 <inform_int+0x19d>
    45bb:	8b 45 f4             	mov    -0xc(%ebp),%eax
    45be:	8b 80 02 02 00 00    	mov    0x202(%eax),%eax
    45c4:	c7 00 f6 ff ff ff    	movl   $0xfffffff6,(%eax)
    45ca:	8b 45 f4             	mov    -0xc(%ebp),%eax
    45cd:	8b 80 02 02 00 00    	mov    0x202(%eax),%eax
    45d3:	c7 40 04 01 00 00 00 	movl   $0x1,0x4(%eax)
    45da:	8b 45 f4             	mov    -0xc(%ebp),%eax
    45dd:	c7 80 02 02 00 00 00 	movl   $0x0,0x202(%eax)
    45e4:	00 00 00 
    45e7:	8b 45 f4             	mov    -0xc(%ebp),%eax
    45ea:	c7 80 0e 02 00 00 00 	movl   $0x0,0x20e(%eax)
    45f1:	00 00 00 
    45f4:	8b 45 f4             	mov    -0xc(%ebp),%eax
    45f7:	8b 40 72             	mov    0x72(%eax),%eax
    45fa:	89 c2                	mov    %eax,%edx
    45fc:	83 e2 fb             	and    $0xfffffffb,%edx
    45ff:	8b 45 f4             	mov    -0xc(%ebp),%eax
    4602:	89 50 72             	mov    %edx,0x72(%eax)
    4605:	8b 45 f4             	mov    -0xc(%ebp),%eax
    4608:	c7 80 06 02 00 00 3e 	movl   $0x3e,0x206(%eax)
    460f:	00 00 00 
    4612:	8b 45 f4             	mov    -0xc(%ebp),%eax
    4615:	8b 40 72             	mov    0x72(%eax),%eax
    4618:	85 c0                	test   %eax,%eax
    461a:	74 24                	je     4640 <inform_int+0xcd>
    461c:	c7 44 24 0c 36 02 00 	movl   $0x236,0xc(%esp)
    4623:	00 
    4624:	c7 44 24 08 68 0c 01 	movl   $0x10c68,0x8(%esp)
    462b:	00 
    462c:	c7 44 24 04 68 0c 01 	movl   $0x10c68,0x4(%esp)
    4633:	00 
    4634:	c7 04 24 49 0d 01 00 	movl   $0x10d49,(%esp)
    463b:	e8 8a bd 00 00       	call   103ca <assertion_failure>
    4640:	8b 45 f4             	mov    -0xc(%ebp),%eax
    4643:	89 04 24             	mov    %eax,(%esp)
    4646:	e8 55 ef ff ff       	call   35a0 <unblock>
    464b:	8b 45 f4             	mov    -0xc(%ebp),%eax
    464e:	8b 40 72             	mov    0x72(%eax),%eax
    4651:	85 c0                	test   %eax,%eax
    4653:	74 24                	je     4679 <inform_int+0x106>
    4655:	c7 44 24 0c 39 02 00 	movl   $0x239,0xc(%esp)
    465c:	00 
    465d:	c7 44 24 08 68 0c 01 	movl   $0x10c68,0x8(%esp)
    4664:	00 
    4665:	c7 44 24 04 68 0c 01 	movl   $0x10c68,0x4(%esp)
    466c:	00 
    466d:	c7 04 24 49 0d 01 00 	movl   $0x10d49,(%esp)
    4674:	e8 51 bd 00 00       	call   103ca <assertion_failure>
    4679:	8b 45 f4             	mov    -0xc(%ebp),%eax
    467c:	8b 80 02 02 00 00    	mov    0x202(%eax),%eax
    4682:	85 c0                	test   %eax,%eax
    4684:	74 24                	je     46aa <inform_int+0x137>
    4686:	c7 44 24 0c 3a 02 00 	movl   $0x23a,0xc(%esp)
    468d:	00 
    468e:	c7 44 24 08 68 0c 01 	movl   $0x10c68,0x8(%esp)
    4695:	00 
    4696:	c7 44 24 04 68 0c 01 	movl   $0x10c68,0x4(%esp)
    469d:	00 
    469e:	c7 04 24 7c 10 01 00 	movl   $0x1107c,(%esp)
    46a5:	e8 20 bd 00 00       	call   103ca <assertion_failure>
    46aa:	8b 45 f4             	mov    -0xc(%ebp),%eax
    46ad:	8b 80 06 02 00 00    	mov    0x206(%eax),%eax
    46b3:	83 f8 3e             	cmp    $0x3e,%eax
    46b6:	74 24                	je     46dc <inform_int+0x169>
    46b8:	c7 44 24 0c 3b 02 00 	movl   $0x23b,0xc(%esp)
    46bf:	00 
    46c0:	c7 44 24 08 68 0c 01 	movl   $0x10c68,0x8(%esp)
    46c7:	00 
    46c8:	c7 44 24 04 68 0c 01 	movl   $0x10c68,0x4(%esp)
    46cf:	00 
    46d0:	c7 04 24 88 10 01 00 	movl   $0x11088,(%esp)
    46d7:	e8 ee bc 00 00       	call   103ca <assertion_failure>
    46dc:	8b 45 f4             	mov    -0xc(%ebp),%eax
    46df:	8b 80 0a 02 00 00    	mov    0x20a(%eax),%eax
    46e5:	83 f8 3e             	cmp    $0x3e,%eax
    46e8:	74 33                	je     471d <inform_int+0x1aa>
    46ea:	c7 44 24 0c 3c 02 00 	movl   $0x23c,0xc(%esp)
    46f1:	00 
    46f2:	c7 44 24 08 68 0c 01 	movl   $0x10c68,0x8(%esp)
    46f9:	00 
    46fa:	c7 44 24 04 68 0c 01 	movl   $0x10c68,0x4(%esp)
    4701:	00 
    4702:	c7 04 24 9f 10 01 00 	movl   $0x1109f,(%esp)
    4709:	e8 bc bc 00 00       	call   103ca <assertion_failure>
    470e:	eb 0d                	jmp    471d <inform_int+0x1aa>
    4710:	8b 45 f4             	mov    -0xc(%ebp),%eax
    4713:	c7 80 0e 02 00 00 01 	movl   $0x1,0x20e(%eax)
    471a:	00 00 00 
    471d:	c9                   	leave  
    471e:	c3                   	ret    

0000471f <dumproc>:
    471f:	55                   	push   %ebp
    4720:	89 e5                	mov    %esp,%ebp
    4722:	81 ec 28 04 00 00    	sub    $0x428,%esp
    4728:	c7 45 f0 24 00 00 00 	movl   $0x24,-0x10(%ebp)
    472f:	c7 45 ec 36 03 00 00 	movl   $0x336,-0x14(%ebp)
    4736:	c7 44 24 04 0c 00 00 	movl   $0xc,0x4(%esp)
    473d:	00 
    473e:	c7 04 24 d4 03 00 00 	movl   $0x3d4,(%esp)
    4745:	e8 35 08 00 00       	call   4f7f <out_byte>
    474a:	c7 44 24 04 00 00 00 	movl   $0x0,0x4(%esp)
    4751:	00 
    4752:	c7 04 24 d5 03 00 00 	movl   $0x3d5,(%esp)
    4759:	e8 21 08 00 00       	call   4f7f <out_byte>
    475e:	c7 44 24 04 0d 00 00 	movl   $0xd,0x4(%esp)
    4765:	00 
    4766:	c7 04 24 d4 03 00 00 	movl   $0x3d4,(%esp)
    476d:	e8 0d 08 00 00       	call   4f7f <out_byte>
    4772:	c7 44 24 04 00 00 00 	movl   $0x0,0x4(%esp)
    4779:	00 
    477a:	c7 04 24 d5 03 00 00 	movl   $0x3d5,(%esp)
    4781:	e8 f9 07 00 00       	call   4f7f <out_byte>
    4786:	8b 55 08             	mov    0x8(%ebp),%edx
    4789:	b8 c0 0c 05 00       	mov    $0x50cc0,%eax
    478e:	89 d1                	mov    %edx,%ecx
    4790:	29 c1                	sub    %eax,%ecx
    4792:	89 c8                	mov    %ecx,%eax
    4794:	d1 f8                	sar    %eax
    4796:	69 c0 93 7c 28 ad    	imul   $0xad287c93,%eax,%eax
    479c:	89 44 24 08          	mov    %eax,0x8(%esp)
    47a0:	c7 44 24 04 b4 10 01 	movl   $0x110b4,0x4(%esp)
    47a7:	00 
    47a8:	8d 85 ec fb ff ff    	lea    -0x414(%ebp),%eax
    47ae:	89 04 24             	mov    %eax,(%esp)
    47b1:	e8 0d b9 00 00       	call   100c3 <sprintf>
    47b6:	8b 45 f0             	mov    -0x10(%ebp),%eax
    47b9:	89 44 24 04          	mov    %eax,0x4(%esp)
    47bd:	8d 85 ec fb ff ff    	lea    -0x414(%ebp),%eax
    47c3:	89 04 24             	mov    %eax,(%esp)
    47c6:	e8 6c 07 00 00       	call   4f37 <disp_color_str>
    47cb:	c7 45 f4 00 00 00 00 	movl   $0x0,-0xc(%ebp)
    47d2:	eb 42                	jmp    4816 <dumproc+0xf7>
    47d4:	8b 55 08             	mov    0x8(%ebp),%edx
    47d7:	8b 45 f4             	mov    -0xc(%ebp),%eax
    47da:	8d 04 02             	lea    (%edx,%eax,1),%eax
    47dd:	0f b6 00             	movzbl (%eax),%eax
    47e0:	0f b6 c0             	movzbl %al,%eax
    47e3:	89 44 24 08          	mov    %eax,0x8(%esp)
    47e7:	c7 44 24 04 d2 10 01 	movl   $0x110d2,0x4(%esp)
    47ee:	00 
    47ef:	8d 85 ec fb ff ff    	lea    -0x414(%ebp),%eax
    47f5:	89 04 24             	mov    %eax,(%esp)
    47f8:	e8 c6 b8 00 00       	call   100c3 <sprintf>
    47fd:	8b 45 f0             	mov    -0x10(%ebp),%eax
    4800:	89 44 24 04          	mov    %eax,0x4(%esp)
    4804:	8d 85 ec fb ff ff    	lea    -0x414(%ebp),%eax
    480a:	89 04 24             	mov    %eax,(%esp)
    480d:	e8 25 07 00 00       	call   4f37 <disp_color_str>
    4812:	83 45 f4 01          	addl   $0x1,-0xc(%ebp)
    4816:	8b 45 f4             	mov    -0xc(%ebp),%eax
    4819:	3b 45 ec             	cmp    -0x14(%ebp),%eax
    481c:	7c b6                	jl     47d4 <dumproc+0xb5>
    481e:	8b 45 f0             	mov    -0x10(%ebp),%eax
    4821:	89 44 24 04          	mov    %eax,0x4(%esp)
    4825:	c7 04 24 d6 10 01 00 	movl   $0x110d6,(%esp)
    482c:	e8 06 07 00 00       	call   4f37 <disp_color_str>
    4831:	c7 44 24 08 34 00 00 	movl   $0x34,0x8(%esp)
    4838:	00 
    4839:	c7 44 24 04 d9 10 01 	movl   $0x110d9,0x4(%esp)
    4840:	00 
    4841:	8d 85 ec fb ff ff    	lea    -0x414(%ebp),%eax
    4847:	89 04 24             	mov    %eax,(%esp)
    484a:	e8 74 b8 00 00       	call   100c3 <sprintf>
    484f:	8b 45 f0             	mov    -0x10(%ebp),%eax
    4852:	89 44 24 04          	mov    %eax,0x4(%esp)
    4856:	8d 85 ec fb ff ff    	lea    -0x414(%ebp),%eax
    485c:	89 04 24             	mov    %eax,(%esp)
    485f:	e8 d3 06 00 00       	call   4f37 <disp_color_str>
    4864:	c7 44 24 08 3e 00 00 	movl   $0x3e,0x8(%esp)
    486b:	00 
    486c:	c7 44 24 04 e5 10 01 	movl   $0x110e5,0x4(%esp)
    4873:	00 
    4874:	8d 85 ec fb ff ff    	lea    -0x414(%ebp),%eax
    487a:	89 04 24             	mov    %eax,(%esp)
    487d:	e8 41 b8 00 00       	call   100c3 <sprintf>
    4882:	8b 45 f0             	mov    -0x10(%ebp),%eax
    4885:	89 44 24 04          	mov    %eax,0x4(%esp)
    4889:	8d 85 ec fb ff ff    	lea    -0x414(%ebp),%eax
    488f:	89 04 24             	mov    %eax,(%esp)
    4892:	e8 a0 06 00 00       	call   4f37 <disp_color_str>
    4897:	8b 45 f0             	mov    -0x10(%ebp),%eax
    489a:	89 44 24 04          	mov    %eax,0x4(%esp)
    489e:	c7 04 24 f5 10 01 00 	movl   $0x110f5,(%esp)
    48a5:	e8 8d 06 00 00       	call   4f37 <disp_color_str>
    48aa:	8b 45 08             	mov    0x8(%ebp),%eax
    48ad:	0f b7 40 48          	movzwl 0x48(%eax),%eax
    48b1:	0f b7 c0             	movzwl %ax,%eax
    48b4:	89 44 24 08          	mov    %eax,0x8(%esp)
    48b8:	c7 44 24 04 f7 10 01 	movl   $0x110f7,0x4(%esp)
    48bf:	00 
    48c0:	8d 85 ec fb ff ff    	lea    -0x414(%ebp),%eax
    48c6:	89 04 24             	mov    %eax,(%esp)
    48c9:	e8 f5 b7 00 00       	call   100c3 <sprintf>
    48ce:	8b 45 f0             	mov    -0x10(%ebp),%eax
    48d1:	89 44 24 04          	mov    %eax,0x4(%esp)
    48d5:	8d 85 ec fb ff ff    	lea    -0x414(%ebp),%eax
    48db:	89 04 24             	mov    %eax,(%esp)
    48de:	e8 54 06 00 00       	call   4f37 <disp_color_str>
    48e3:	8b 45 08             	mov    0x8(%ebp),%eax
    48e6:	8b 40 5a             	mov    0x5a(%eax),%eax
    48e9:	89 44 24 08          	mov    %eax,0x8(%esp)
    48ed:	c7 44 24 04 08 11 01 	movl   $0x11108,0x4(%esp)
    48f4:	00 
    48f5:	8d 85 ec fb ff ff    	lea    -0x414(%ebp),%eax
    48fb:	89 04 24             	mov    %eax,(%esp)
    48fe:	e8 c0 b7 00 00       	call   100c3 <sprintf>
    4903:	8b 45 f0             	mov    -0x10(%ebp),%eax
    4906:	89 44 24 04          	mov    %eax,0x4(%esp)
    490a:	8d 85 ec fb ff ff    	lea    -0x414(%ebp),%eax
    4910:	89 04 24             	mov    %eax,(%esp)
    4913:	e8 1f 06 00 00       	call   4f37 <disp_color_str>
    4918:	8b 45 08             	mov    0x8(%ebp),%eax
    491b:	8b 40 5e             	mov    0x5e(%eax),%eax
    491e:	89 44 24 08          	mov    %eax,0x8(%esp)
    4922:	c7 44 24 04 19 11 01 	movl   $0x11119,0x4(%esp)
    4929:	00 
    492a:	8d 85 ec fb ff ff    	lea    -0x414(%ebp),%eax
    4930:	89 04 24             	mov    %eax,(%esp)
    4933:	e8 8b b7 00 00       	call   100c3 <sprintf>
    4938:	8b 45 f0             	mov    -0x10(%ebp),%eax
    493b:	89 44 24 04          	mov    %eax,0x4(%esp)
    493f:	8d 85 ec fb ff ff    	lea    -0x414(%ebp),%eax
    4945:	89 04 24             	mov    %eax,(%esp)
    4948:	e8 ea 05 00 00       	call   4f37 <disp_color_str>
    494d:	8b 45 08             	mov    0x8(%ebp),%eax
    4950:	83 c0 62             	add    $0x62,%eax
    4953:	89 44 24 08          	mov    %eax,0x8(%esp)
    4957:	c7 44 24 04 2b 11 01 	movl   $0x1112b,0x4(%esp)
    495e:	00 
    495f:	8d 85 ec fb ff ff    	lea    -0x414(%ebp),%eax
    4965:	89 04 24             	mov    %eax,(%esp)
    4968:	e8 56 b7 00 00       	call   100c3 <sprintf>
    496d:	8b 45 f0             	mov    -0x10(%ebp),%eax
    4970:	89 44 24 04          	mov    %eax,0x4(%esp)
    4974:	8d 85 ec fb ff ff    	lea    -0x414(%ebp),%eax
    497a:	89 04 24             	mov    %eax,(%esp)
    497d:	e8 b5 05 00 00       	call   4f37 <disp_color_str>
    4982:	8b 45 f0             	mov    -0x10(%ebp),%eax
    4985:	89 44 24 04          	mov    %eax,0x4(%esp)
    4989:	c7 04 24 f5 10 01 00 	movl   $0x110f5,(%esp)
    4990:	e8 a2 05 00 00       	call   4f37 <disp_color_str>
    4995:	8b 45 08             	mov    0x8(%ebp),%eax
    4998:	8b 40 72             	mov    0x72(%eax),%eax
    499b:	89 44 24 08          	mov    %eax,0x8(%esp)
    499f:	c7 44 24 04 37 11 01 	movl   $0x11137,0x4(%esp)
    49a6:	00 
    49a7:	8d 85 ec fb ff ff    	lea    -0x414(%ebp),%eax
    49ad:	89 04 24             	mov    %eax,(%esp)
    49b0:	e8 0e b7 00 00       	call   100c3 <sprintf>
    49b5:	8b 45 f0             	mov    -0x10(%ebp),%eax
    49b8:	89 44 24 04          	mov    %eax,0x4(%esp)
    49bc:	8d 85 ec fb ff ff    	lea    -0x414(%ebp),%eax
    49c2:	89 04 24             	mov    %eax,(%esp)
    49c5:	e8 6d 05 00 00       	call   4f37 <disp_color_str>
    49ca:	8b 45 08             	mov    0x8(%ebp),%eax
    49cd:	8b 80 06 02 00 00    	mov    0x206(%eax),%eax
    49d3:	89 44 24 08          	mov    %eax,0x8(%esp)
    49d7:	c7 44 24 04 46 11 01 	movl   $0x11146,0x4(%esp)
    49de:	00 
    49df:	8d 85 ec fb ff ff    	lea    -0x414(%ebp),%eax
    49e5:	89 04 24             	mov    %eax,(%esp)
    49e8:	e8 d6 b6 00 00       	call   100c3 <sprintf>
    49ed:	8b 45 f0             	mov    -0x10(%ebp),%eax
    49f0:	89 44 24 04          	mov    %eax,0x4(%esp)
    49f4:	8d 85 ec fb ff ff    	lea    -0x414(%ebp),%eax
    49fa:	89 04 24             	mov    %eax,(%esp)
    49fd:	e8 35 05 00 00       	call   4f37 <disp_color_str>
    4a02:	8b 45 08             	mov    0x8(%ebp),%eax
    4a05:	8b 80 0a 02 00 00    	mov    0x20a(%eax),%eax
    4a0b:	89 44 24 08          	mov    %eax,0x8(%esp)
    4a0f:	c7 44 24 04 58 11 01 	movl   $0x11158,0x4(%esp)
    4a16:	00 
    4a17:	8d 85 ec fb ff ff    	lea    -0x414(%ebp),%eax
    4a1d:	89 04 24             	mov    %eax,(%esp)
    4a20:	e8 9e b6 00 00       	call   100c3 <sprintf>
    4a25:	8b 45 f0             	mov    -0x10(%ebp),%eax
    4a28:	89 44 24 04          	mov    %eax,0x4(%esp)
    4a2c:	8d 85 ec fb ff ff    	lea    -0x414(%ebp),%eax
    4a32:	89 04 24             	mov    %eax,(%esp)
    4a35:	e8 fd 04 00 00       	call   4f37 <disp_color_str>
    4a3a:	8b 45 f0             	mov    -0x10(%ebp),%eax
    4a3d:	89 44 24 04          	mov    %eax,0x4(%esp)
    4a41:	c7 04 24 f5 10 01 00 	movl   $0x110f5,(%esp)
    4a48:	e8 ea 04 00 00       	call   4f37 <disp_color_str>
    4a4d:	8b 45 08             	mov    0x8(%ebp),%eax
    4a50:	8b 80 0e 02 00 00    	mov    0x20e(%eax),%eax
    4a56:	89 44 24 08          	mov    %eax,0x8(%esp)
    4a5a:	c7 44 24 04 68 11 01 	movl   $0x11168,0x4(%esp)
    4a61:	00 
    4a62:	8d 85 ec fb ff ff    	lea    -0x414(%ebp),%eax
    4a68:	89 04 24             	mov    %eax,(%esp)
    4a6b:	e8 53 b6 00 00       	call   100c3 <sprintf>
    4a70:	8b 45 f0             	mov    -0x10(%ebp),%eax
    4a73:	89 44 24 04          	mov    %eax,0x4(%esp)
    4a77:	8d 85 ec fb ff ff    	lea    -0x414(%ebp),%eax
    4a7d:	89 04 24             	mov    %eax,(%esp)
    4a80:	e8 b2 04 00 00       	call   4f37 <disp_color_str>
    4a85:	c9                   	leave  
    4a86:	c3                   	ret    

00004a87 <dump_msg>:
    4a87:	55                   	push   %ebp
    4a88:	89 e5                	mov    %esp,%ebp
    4a8a:	57                   	push   %edi
    4a8b:	56                   	push   %esi
    4a8c:	53                   	push   %ebx
    4a8d:	81 ec 9c 00 00 00    	sub    $0x9c,%esp
    4a93:	c7 45 e4 00 00 00 00 	movl   $0x0,-0x1c(%ebp)
    4a9a:	83 7d e4 00          	cmpl   $0x0,-0x1c(%ebp)
    4a9e:	74 07                	je     4aa7 <dump_msg+0x20>
    4aa0:	bf 7d 11 01 00       	mov    $0x1117d,%edi
    4aa5:	eb 05                	jmp    4aac <dump_msg+0x25>
    4aa7:	bf f5 10 01 00       	mov    $0x110f5,%edi
    4aac:	83 7d e4 00          	cmpl   $0x0,-0x1c(%ebp)
    4ab0:	74 09                	je     4abb <dump_msg+0x34>
    4ab2:	c7 45 d4 7d 11 01 00 	movl   $0x1117d,-0x2c(%ebp)
    4ab9:	eb 07                	jmp    4ac2 <dump_msg+0x3b>
    4abb:	c7 45 d4 f5 10 01 00 	movl   $0x110f5,-0x2c(%ebp)
    4ac2:	8b 45 0c             	mov    0xc(%ebp),%eax
    4ac5:	8b 40 2c             	mov    0x2c(%eax),%eax
    4ac8:	89 45 cc             	mov    %eax,-0x34(%ebp)
    4acb:	8b 45 0c             	mov    0xc(%ebp),%eax
    4ace:	8b 40 28             	mov    0x28(%eax),%eax
    4ad1:	89 45 c8             	mov    %eax,-0x38(%ebp)
    4ad4:	8b 45 0c             	mov    0xc(%ebp),%eax
    4ad7:	8b 40 14             	mov    0x14(%eax),%eax
    4ada:	89 45 c4             	mov    %eax,-0x3c(%ebp)
    4add:	8b 45 0c             	mov    0xc(%ebp),%eax
    4ae0:	8b 40 10             	mov    0x10(%eax),%eax
    4ae3:	89 45 c0             	mov    %eax,-0x40(%ebp)
    4ae6:	8b 45 0c             	mov    0xc(%ebp),%eax
    4ae9:	8b 40 0c             	mov    0xc(%eax),%eax
    4aec:	89 45 bc             	mov    %eax,-0x44(%ebp)
    4aef:	8b 45 0c             	mov    0xc(%ebp),%eax
    4af2:	8b 40 08             	mov    0x8(%eax),%eax
    4af5:	89 45 b8             	mov    %eax,-0x48(%ebp)
    4af8:	83 7d e4 00          	cmpl   $0x0,-0x1c(%ebp)
    4afc:	74 09                	je     4b07 <dump_msg+0x80>
    4afe:	c7 45 d0 7e 11 01 00 	movl   $0x1117e,-0x30(%ebp)
    4b05:	eb 07                	jmp    4b0e <dump_msg+0x87>
    4b07:	c7 45 d0 80 11 01 00 	movl   $0x11180,-0x30(%ebp)
    4b0e:	8b 45 0c             	mov    0xc(%ebp),%eax
    4b11:	8b 40 04             	mov    0x4(%eax),%eax
    4b14:	89 45 b4             	mov    %eax,-0x4c(%ebp)
    4b17:	83 7d e4 00          	cmpl   $0x0,-0x1c(%ebp)
    4b1b:	74 07                	je     4b24 <dump_msg+0x9d>
    4b1d:	b9 7e 11 01 00       	mov    $0x1117e,%ecx
    4b22:	eb 05                	jmp    4b29 <dump_msg+0xa2>
    4b24:	b9 80 11 01 00       	mov    $0x11180,%ecx
    4b29:	8b 45 0c             	mov    0xc(%ebp),%eax
    4b2c:	8b 30                	mov    (%eax),%esi
    4b2e:	8b 45 0c             	mov    0xc(%ebp),%eax
    4b31:	8b 00                	mov    (%eax),%eax
    4b33:	69 c0 36 03 00 00    	imul   $0x336,%eax,%eax
    4b39:	83 c0 60             	add    $0x60,%eax
    4b3c:	05 c0 0c 05 00       	add    $0x50cc0,%eax
    4b41:	8d 58 02             	lea    0x2(%eax),%ebx
    4b44:	83 7d e4 00          	cmpl   $0x0,-0x1c(%ebp)
    4b48:	74 07                	je     4b51 <dump_msg+0xca>
    4b4a:	b8 7d 11 01 00       	mov    $0x1117d,%eax
    4b4f:	eb 05                	jmp    4b56 <dump_msg+0xcf>
    4b51:	b8 80 11 01 00       	mov    $0x11180,%eax
    4b56:	8b 55 0c             	mov    0xc(%ebp),%edx
    4b59:	89 7c 24 40          	mov    %edi,0x40(%esp)
    4b5d:	8b 7d d4             	mov    -0x2c(%ebp),%edi
    4b60:	89 7c 24 3c          	mov    %edi,0x3c(%esp)
    4b64:	8b 7d cc             	mov    -0x34(%ebp),%edi
    4b67:	89 7c 24 38          	mov    %edi,0x38(%esp)
    4b6b:	8b 7d c8             	mov    -0x38(%ebp),%edi
    4b6e:	89 7c 24 34          	mov    %edi,0x34(%esp)
    4b72:	8b 7d c4             	mov    -0x3c(%ebp),%edi
    4b75:	89 7c 24 30          	mov    %edi,0x30(%esp)
    4b79:	8b 7d c0             	mov    -0x40(%ebp),%edi
    4b7c:	89 7c 24 2c          	mov    %edi,0x2c(%esp)
    4b80:	8b 7d bc             	mov    -0x44(%ebp),%edi
    4b83:	89 7c 24 28          	mov    %edi,0x28(%esp)
    4b87:	8b 7d b8             	mov    -0x48(%ebp),%edi
    4b8a:	89 7c 24 24          	mov    %edi,0x24(%esp)
    4b8e:	8b 7d d0             	mov    -0x30(%ebp),%edi
    4b91:	89 7c 24 20          	mov    %edi,0x20(%esp)
    4b95:	8b 7d b4             	mov    -0x4c(%ebp),%edi
    4b98:	89 7c 24 1c          	mov    %edi,0x1c(%esp)
    4b9c:	89 4c 24 18          	mov    %ecx,0x18(%esp)
    4ba0:	89 74 24 14          	mov    %esi,0x14(%esp)
    4ba4:	89 5c 24 10          	mov    %ebx,0x10(%esp)
    4ba8:	89 44 24 0c          	mov    %eax,0xc(%esp)
    4bac:	89 54 24 08          	mov    %edx,0x8(%esp)
    4bb0:	8b 45 08             	mov    0x8(%ebp),%eax
    4bb3:	89 44 24 04          	mov    %eax,0x4(%esp)
    4bb7:	c7 04 24 8c 11 01 00 	movl   $0x1118c,(%esp)
    4bbe:	e8 c7 b1 00 00       	call   fd8a <printl>
    4bc3:	81 c4 9c 00 00 00    	add    $0x9c,%esp
    4bc9:	5b                   	pop    %ebx
    4bca:	5e                   	pop    %esi
    4bcb:	5f                   	pop    %edi
    4bcc:	5d                   	pop    %ebp
    4bcd:	c3                   	ret    
    4bce:	90                   	nop
    4bcf:	90                   	nop

00004bd0 <task_sys>:
    4bd0:	55                   	push   %ebp
    4bd1:	89 e5                	mov    %esp,%ebp
    4bd3:	53                   	push   %ebx
    4bd4:	83 ec 64             	sub    $0x64,%esp
    4bd7:	8d 45 c4             	lea    -0x3c(%ebp),%eax
    4bda:	89 44 24 08          	mov    %eax,0x8(%esp)
    4bde:	c7 44 24 04 34 00 00 	movl   $0x34,0x4(%esp)
    4be5:	00 
    4be6:	c7 04 24 02 00 00 00 	movl   $0x2,(%esp)
    4bed:	e8 86 b5 00 00       	call   10178 <send_recv>
    4bf2:	8b 45 c4             	mov    -0x3c(%ebp),%eax
    4bf5:	89 45 f4             	mov    %eax,-0xc(%ebp)
    4bf8:	8b 45 c8             	mov    -0x38(%ebp),%eax
    4bfb:	83 f8 03             	cmp    $0x3,%eax
    4bfe:	74 49                	je     4c49 <task_sys+0x79>
    4c00:	83 f8 03             	cmp    $0x3,%eax
    4c03:	7f 0a                	jg     4c0f <task_sys+0x3f>
    4c05:	83 f8 02             	cmp    $0x2,%eax
    4c08:	74 18                	je     4c22 <task_sys+0x52>
    4c0a:	e9 07 01 00 00       	jmp    4d16 <task_sys+0x146>
    4c0f:	83 f8 04             	cmp    $0x4,%eax
    4c12:	74 61                	je     4c75 <task_sys+0xa5>
    4c14:	83 f8 0a             	cmp    $0xa,%eax
    4c17:	0f 84 c1 00 00 00    	je     4cde <task_sys+0x10e>
    4c1d:	e9 f4 00 00 00       	jmp    4d16 <task_sys+0x146>
    4c22:	a1 e0 01 05 00       	mov    0x501e0,%eax
    4c27:	89 45 cc             	mov    %eax,-0x34(%ebp)
    4c2a:	8d 45 c4             	lea    -0x3c(%ebp),%eax
    4c2d:	89 44 24 08          	mov    %eax,0x8(%esp)
    4c31:	8b 45 f4             	mov    -0xc(%ebp),%eax
    4c34:	89 44 24 04          	mov    %eax,0x4(%esp)
    4c38:	c7 04 24 01 00 00 00 	movl   $0x1,(%esp)
    4c3f:	e8 34 b5 00 00       	call   10178 <send_recv>
    4c44:	e9 da 00 00 00       	jmp    4d23 <task_sys+0x153>
    4c49:	c7 45 c8 2d 00 00 00 	movl   $0x2d,-0x38(%ebp)
    4c50:	8b 45 f4             	mov    -0xc(%ebp),%eax
    4c53:	89 45 d0             	mov    %eax,-0x30(%ebp)
    4c56:	8d 45 c4             	lea    -0x3c(%ebp),%eax
    4c59:	89 44 24 08          	mov    %eax,0x8(%esp)
    4c5d:	8b 45 f4             	mov    -0xc(%ebp),%eax
    4c60:	89 44 24 04          	mov    %eax,0x4(%esp)
    4c64:	c7 04 24 01 00 00 00 	movl   $0x1,(%esp)
    4c6b:	e8 08 b5 00 00       	call   10178 <send_recv>
    4c70:	e9 ae 00 00 00       	jmp    4d23 <task_sys+0x153>
    4c75:	c7 45 c8 2d 00 00 00 	movl   $0x2d,-0x38(%ebp)
    4c7c:	8d 45 ac             	lea    -0x54(%ebp),%eax
    4c7f:	89 04 24             	mov    %eax,(%esp)
    4c82:	e8 a1 00 00 00       	call   4d28 <get_rtc_time>
    4c87:	8d 45 ac             	lea    -0x54(%ebp),%eax
    4c8a:	89 44 24 04          	mov    %eax,0x4(%esp)
    4c8e:	c7 04 24 01 00 00 00 	movl   $0x1,(%esp)
    4c95:	e8 3b e8 ff ff       	call   34d5 <va2la>
    4c9a:	89 c3                	mov    %eax,%ebx
    4c9c:	8b 45 f0             	mov    -0x10(%ebp),%eax
    4c9f:	89 44 24 04          	mov    %eax,0x4(%esp)
    4ca3:	8b 45 f4             	mov    -0xc(%ebp),%eax
    4ca6:	89 04 24             	mov    %eax,(%esp)
    4ca9:	e8 27 e8 ff ff       	call   34d5 <va2la>
    4cae:	c7 44 24 08 18 00 00 	movl   $0x18,0x8(%esp)
    4cb5:	00 
    4cb6:	89 5c 24 04          	mov    %ebx,0x4(%esp)
    4cba:	89 04 24             	mov    %eax,(%esp)
    4cbd:	e8 2e b4 00 00       	call   100f0 <memcpy>
    4cc2:	8d 45 c4             	lea    -0x3c(%ebp),%eax
    4cc5:	89 44 24 08          	mov    %eax,0x8(%esp)
    4cc9:	8b 45 f4             	mov    -0xc(%ebp),%eax
    4ccc:	89 44 24 04          	mov    %eax,0x4(%esp)
    4cd0:	c7 04 24 01 00 00 00 	movl   $0x1,(%esp)
    4cd7:	e8 9c b4 00 00       	call   10178 <send_recv>
    4cdc:	eb 45                	jmp    4d23 <task_sys+0x153>
    4cde:	c7 45 c8 2d 00 00 00 	movl   $0x2d,-0x38(%ebp)
    4ce5:	8b 45 f0             	mov    -0x10(%ebp),%eax
    4ce8:	89 44 24 04          	mov    %eax,0x4(%esp)
    4cec:	8b 45 f4             	mov    -0xc(%ebp),%eax
    4cef:	89 04 24             	mov    %eax,(%esp)
    4cf2:	e8 33 08 00 00       	call   552a <do_uname>
    4cf7:	89 45 cc             	mov    %eax,-0x34(%ebp)
    4cfa:	8d 45 c4             	lea    -0x3c(%ebp),%eax
    4cfd:	89 44 24 08          	mov    %eax,0x8(%esp)
    4d01:	8b 45 f4             	mov    -0xc(%ebp),%eax
    4d04:	89 44 24 04          	mov    %eax,0x4(%esp)
    4d08:	c7 04 24 01 00 00 00 	movl   $0x1,(%esp)
    4d0f:	e8 64 b4 00 00       	call   10178 <send_recv>
    4d14:	eb 0d                	jmp    4d23 <task_sys+0x153>
    4d16:	c7 04 24 da 11 01 00 	movl   $0x111da,(%esp)
    4d1d:	e8 15 d2 ff ff       	call   1f37 <panic>
    4d22:	90                   	nop
    4d23:	e9 af fe ff ff       	jmp    4bd7 <task_sys+0x7>

00004d28 <get_rtc_time>:
    4d28:	55                   	push   %ebp
    4d29:	89 e5                	mov    %esp,%ebp
    4d2b:	83 ec 18             	sub    $0x18,%esp
    4d2e:	c7 04 24 09 00 00 00 	movl   $0x9,(%esp)
    4d35:	e8 80 01 00 00       	call   4eba <read_register>
    4d3a:	89 c2                	mov    %eax,%edx
    4d3c:	8b 45 08             	mov    0x8(%ebp),%eax
    4d3f:	89 10                	mov    %edx,(%eax)
    4d41:	c7 04 24 08 00 00 00 	movl   $0x8,(%esp)
    4d48:	e8 6d 01 00 00       	call   4eba <read_register>
    4d4d:	89 c2                	mov    %eax,%edx
    4d4f:	8b 45 08             	mov    0x8(%ebp),%eax
    4d52:	89 50 04             	mov    %edx,0x4(%eax)
    4d55:	c7 04 24 07 00 00 00 	movl   $0x7,(%esp)
    4d5c:	e8 59 01 00 00       	call   4eba <read_register>
    4d61:	89 c2                	mov    %eax,%edx
    4d63:	8b 45 08             	mov    0x8(%ebp),%eax
    4d66:	89 50 08             	mov    %edx,0x8(%eax)
    4d69:	c7 04 24 04 00 00 00 	movl   $0x4,(%esp)
    4d70:	e8 45 01 00 00       	call   4eba <read_register>
    4d75:	89 c2                	mov    %eax,%edx
    4d77:	8b 45 08             	mov    0x8(%ebp),%eax
    4d7a:	89 50 0c             	mov    %edx,0xc(%eax)
    4d7d:	c7 04 24 02 00 00 00 	movl   $0x2,(%esp)
    4d84:	e8 31 01 00 00       	call   4eba <read_register>
    4d89:	89 c2                	mov    %eax,%edx
    4d8b:	8b 45 08             	mov    0x8(%ebp),%eax
    4d8e:	89 50 10             	mov    %edx,0x10(%eax)
    4d91:	c7 04 24 00 00 00 00 	movl   $0x0,(%esp)
    4d98:	e8 1d 01 00 00       	call   4eba <read_register>
    4d9d:	89 c2                	mov    %eax,%edx
    4d9f:	8b 45 08             	mov    0x8(%ebp),%eax
    4da2:	89 50 14             	mov    %edx,0x14(%eax)
    4da5:	c7 04 24 0b 00 00 00 	movl   $0xb,(%esp)
    4dac:	e8 09 01 00 00       	call   4eba <read_register>
    4db1:	83 e0 04             	and    $0x4,%eax
    4db4:	85 c0                	test   %eax,%eax
    4db6:	0f 85 e7 00 00 00    	jne    4ea3 <get_rtc_time+0x17b>
    4dbc:	8b 45 08             	mov    0x8(%ebp),%eax
    4dbf:	8b 00                	mov    (%eax),%eax
    4dc1:	89 c2                	mov    %eax,%edx
    4dc3:	c1 ea 04             	shr    $0x4,%edx
    4dc6:	89 d0                	mov    %edx,%eax
    4dc8:	c1 e0 02             	shl    $0x2,%eax
    4dcb:	01 d0                	add    %edx,%eax
    4dcd:	01 c0                	add    %eax,%eax
    4dcf:	89 c2                	mov    %eax,%edx
    4dd1:	8b 45 08             	mov    0x8(%ebp),%eax
    4dd4:	8b 00                	mov    (%eax),%eax
    4dd6:	83 e0 0f             	and    $0xf,%eax
    4dd9:	01 c2                	add    %eax,%edx
    4ddb:	8b 45 08             	mov    0x8(%ebp),%eax
    4dde:	89 10                	mov    %edx,(%eax)
    4de0:	8b 45 08             	mov    0x8(%ebp),%eax
    4de3:	8b 40 04             	mov    0x4(%eax),%eax
    4de6:	89 c2                	mov    %eax,%edx
    4de8:	c1 ea 04             	shr    $0x4,%edx
    4deb:	89 d0                	mov    %edx,%eax
    4ded:	c1 e0 02             	shl    $0x2,%eax
    4df0:	01 d0                	add    %edx,%eax
    4df2:	01 c0                	add    %eax,%eax
    4df4:	89 c2                	mov    %eax,%edx
    4df6:	8b 45 08             	mov    0x8(%ebp),%eax
    4df9:	8b 40 04             	mov    0x4(%eax),%eax
    4dfc:	83 e0 0f             	and    $0xf,%eax
    4dff:	01 c2                	add    %eax,%edx
    4e01:	8b 45 08             	mov    0x8(%ebp),%eax
    4e04:	89 50 04             	mov    %edx,0x4(%eax)
    4e07:	8b 45 08             	mov    0x8(%ebp),%eax
    4e0a:	8b 40 08             	mov    0x8(%eax),%eax
    4e0d:	89 c2                	mov    %eax,%edx
    4e0f:	c1 ea 04             	shr    $0x4,%edx
    4e12:	89 d0                	mov    %edx,%eax
    4e14:	c1 e0 02             	shl    $0x2,%eax
    4e17:	01 d0                	add    %edx,%eax
    4e19:	01 c0                	add    %eax,%eax
    4e1b:	89 c2                	mov    %eax,%edx
    4e1d:	8b 45 08             	mov    0x8(%ebp),%eax
    4e20:	8b 40 08             	mov    0x8(%eax),%eax
    4e23:	83 e0 0f             	and    $0xf,%eax
    4e26:	01 c2                	add    %eax,%edx
    4e28:	8b 45 08             	mov    0x8(%ebp),%eax
    4e2b:	89 50 08             	mov    %edx,0x8(%eax)
    4e2e:	8b 45 08             	mov    0x8(%ebp),%eax
    4e31:	8b 40 0c             	mov    0xc(%eax),%eax
    4e34:	89 c2                	mov    %eax,%edx
    4e36:	c1 ea 04             	shr    $0x4,%edx
    4e39:	89 d0                	mov    %edx,%eax
    4e3b:	c1 e0 02             	shl    $0x2,%eax
    4e3e:	01 d0                	add    %edx,%eax
    4e40:	01 c0                	add    %eax,%eax
    4e42:	89 c2                	mov    %eax,%edx
    4e44:	8b 45 08             	mov    0x8(%ebp),%eax
    4e47:	8b 40 0c             	mov    0xc(%eax),%eax
    4e4a:	83 e0 0f             	and    $0xf,%eax
    4e4d:	01 c2                	add    %eax,%edx
    4e4f:	8b 45 08             	mov    0x8(%ebp),%eax
    4e52:	89 50 0c             	mov    %edx,0xc(%eax)
    4e55:	8b 45 08             	mov    0x8(%ebp),%eax
    4e58:	8b 40 10             	mov    0x10(%eax),%eax
    4e5b:	89 c2                	mov    %eax,%edx
    4e5d:	c1 ea 04             	shr    $0x4,%edx
    4e60:	89 d0                	mov    %edx,%eax
    4e62:	c1 e0 02             	shl    $0x2,%eax
    4e65:	01 d0                	add    %edx,%eax
    4e67:	01 c0                	add    %eax,%eax
    4e69:	89 c2                	mov    %eax,%edx
    4e6b:	8b 45 08             	mov    0x8(%ebp),%eax
    4e6e:	8b 40 10             	mov    0x10(%eax),%eax
    4e71:	83 e0 0f             	and    $0xf,%eax
    4e74:	01 c2                	add    %eax,%edx
    4e76:	8b 45 08             	mov    0x8(%ebp),%eax
    4e79:	89 50 10             	mov    %edx,0x10(%eax)
    4e7c:	8b 45 08             	mov    0x8(%ebp),%eax
    4e7f:	8b 40 14             	mov    0x14(%eax),%eax
    4e82:	89 c2                	mov    %eax,%edx
    4e84:	c1 ea 04             	shr    $0x4,%edx
    4e87:	89 d0                	mov    %edx,%eax
    4e89:	c1 e0 02             	shl    $0x2,%eax
    4e8c:	01 d0                	add    %edx,%eax
    4e8e:	01 c0                	add    %eax,%eax
    4e90:	89 c2                	mov    %eax,%edx
    4e92:	8b 45 08             	mov    0x8(%ebp),%eax
    4e95:	8b 40 14             	mov    0x14(%eax),%eax
    4e98:	83 e0 0f             	and    $0xf,%eax
    4e9b:	01 c2                	add    %eax,%edx
    4e9d:	8b 45 08             	mov    0x8(%ebp),%eax
    4ea0:	89 50 14             	mov    %edx,0x14(%eax)
    4ea3:	8b 45 08             	mov    0x8(%ebp),%eax
    4ea6:	8b 00                	mov    (%eax),%eax
    4ea8:	8d 90 d0 07 00 00    	lea    0x7d0(%eax),%edx
    4eae:	8b 45 08             	mov    0x8(%ebp),%eax
    4eb1:	89 10                	mov    %edx,(%eax)
    4eb3:	b8 00 00 00 00       	mov    $0x0,%eax
    4eb8:	c9                   	leave  
    4eb9:	c3                   	ret    

00004eba <read_register>:
    4eba:	55                   	push   %ebp
    4ebb:	89 e5                	mov    %esp,%ebp
    4ebd:	83 ec 28             	sub    $0x28,%esp
    4ec0:	8b 45 08             	mov    0x8(%ebp),%eax
    4ec3:	88 45 f4             	mov    %al,-0xc(%ebp)
    4ec6:	0f b6 45 f4          	movzbl -0xc(%ebp),%eax
    4eca:	0f b6 c0             	movzbl %al,%eax
    4ecd:	89 44 24 04          	mov    %eax,0x4(%esp)
    4ed1:	c7 04 24 70 00 00 00 	movl   $0x70,(%esp)
    4ed8:	e8 a2 00 00 00       	call   4f7f <out_byte>
    4edd:	c7 04 24 71 00 00 00 	movl   $0x71,(%esp)
    4ee4:	e8 a2 00 00 00       	call   4f8b <in_byte>
    4ee9:	0f b6 c0             	movzbl %al,%eax
    4eec:	c9                   	leave  
    4eed:	c3                   	ret    
    4eee:	90                   	nop
    4eef:	90                   	nop

00004ef0 <disp_str>:
    4ef0:	55                   	push   %ebp
    4ef1:	89 e5                	mov    %esp,%ebp
    4ef3:	8b 75 08             	mov    0x8(%ebp),%esi
    4ef6:	8b 3d 68 ed 04 00    	mov    0x4ed68,%edi
    4efc:	b4 0f                	mov    $0xf,%ah

00004efe <disp_str.1>:
    4efe:	ac                   	lods   %ds:(%esi),%al
    4eff:	84 c0                	test   %al,%al
    4f01:	74 2c                	je     4f2f <disp_str.2>
    4f03:	3c 0a                	cmp    $0xa,%al
    4f05:	75 19                	jne    4f20 <disp_str.3>
    4f07:	50                   	push   %eax
    4f08:	89 f8                	mov    %edi,%eax
    4f0a:	b3 a0                	mov    $0xa0,%bl
    4f0c:	f6 f3                	div    %bl
    4f0e:	25 ff 00 00 00       	and    $0xff,%eax
    4f13:	40                   	inc    %eax
    4f14:	b3 a0                	mov    $0xa0,%bl
    4f16:	f6 e3                	mul    %bl
    4f18:	89 c7                	mov    %eax,%edi
    4f1a:	58                   	pop    %eax
    4f1b:	e9 de ff ff ff       	jmp    4efe <disp_str.1>

00004f20 <disp_str.3>:
    4f20:	65 66 89 07          	mov    %ax,%gs:(%edi)
    4f24:	81 c7 02 00 00 00    	add    $0x2,%edi
    4f2a:	e9 cf ff ff ff       	jmp    4efe <disp_str.1>

00004f2f <disp_str.2>:
    4f2f:	89 3d 68 ed 04 00    	mov    %edi,0x4ed68
    4f35:	5d                   	pop    %ebp
    4f36:	c3                   	ret    

00004f37 <disp_color_str>:
    4f37:	55                   	push   %ebp
    4f38:	89 e5                	mov    %esp,%ebp
    4f3a:	8b 75 08             	mov    0x8(%ebp),%esi
    4f3d:	8b 3d 68 ed 04 00    	mov    0x4ed68,%edi
    4f43:	8a 65 0c             	mov    0xc(%ebp),%ah

00004f46 <disp_color_str.1>:
    4f46:	ac                   	lods   %ds:(%esi),%al
    4f47:	84 c0                	test   %al,%al
    4f49:	74 2c                	je     4f77 <disp_color_str.2>
    4f4b:	3c 0a                	cmp    $0xa,%al
    4f4d:	75 19                	jne    4f68 <disp_color_str.3>
    4f4f:	50                   	push   %eax
    4f50:	89 f8                	mov    %edi,%eax
    4f52:	b3 a0                	mov    $0xa0,%bl
    4f54:	f6 f3                	div    %bl
    4f56:	25 ff 00 00 00       	and    $0xff,%eax
    4f5b:	40                   	inc    %eax
    4f5c:	b3 a0                	mov    $0xa0,%bl
    4f5e:	f6 e3                	mul    %bl
    4f60:	89 c7                	mov    %eax,%edi
    4f62:	58                   	pop    %eax
    4f63:	e9 de ff ff ff       	jmp    4f46 <disp_color_str.1>

00004f68 <disp_color_str.3>:
    4f68:	65 66 89 07          	mov    %ax,%gs:(%edi)
    4f6c:	81 c7 02 00 00 00    	add    $0x2,%edi
    4f72:	e9 cf ff ff ff       	jmp    4f46 <disp_color_str.1>

00004f77 <disp_color_str.2>:
    4f77:	89 3d 68 ed 04 00    	mov    %edi,0x4ed68
    4f7d:	5d                   	pop    %ebp
    4f7e:	c3                   	ret    

00004f7f <out_byte>:
    4f7f:	8b 54 24 04          	mov    0x4(%esp),%edx
    4f83:	8a 44 24 08          	mov    0x8(%esp),%al
    4f87:	ee                   	out    %al,(%dx)
    4f88:	90                   	nop
    4f89:	90                   	nop
    4f8a:	c3                   	ret    

00004f8b <in_byte>:
    4f8b:	8b 54 24 04          	mov    0x4(%esp),%edx
    4f8f:	31 c0                	xor    %eax,%eax
    4f91:	ec                   	in     (%dx),%al
    4f92:	90                   	nop
    4f93:	90                   	nop
    4f94:	c3                   	ret    

00004f95 <port_read>:
    4f95:	8b 54 24 04          	mov    0x4(%esp),%edx
    4f99:	8b 7c 24 08          	mov    0x8(%esp),%edi
    4f9d:	8b 4c 24 0c          	mov    0xc(%esp),%ecx
    4fa1:	d1 e9                	shr    %ecx
    4fa3:	fc                   	cld    
    4fa4:	f3 66 6d             	rep insw (%dx),%es:(%edi)
    4fa7:	c3                   	ret    

00004fa8 <port_write>:
    4fa8:	8b 54 24 04          	mov    0x4(%esp),%edx
    4fac:	8b 74 24 08          	mov    0x8(%esp),%esi
    4fb0:	8b 4c 24 0c          	mov    0xc(%esp),%ecx
    4fb4:	d1 e9                	shr    %ecx
    4fb6:	fc                   	cld    
    4fb7:	f3 66 6f             	rep outsw %ds:(%esi),(%dx)
    4fba:	c3                   	ret    

00004fbb <disable_irq>:
    4fbb:	8b 4c 24 04          	mov    0x4(%esp),%ecx
    4fbf:	9c                   	pushf  
    4fc0:	fa                   	cli    
    4fc1:	b4 01                	mov    $0x1,%ah
    4fc3:	d2 c4                	rol    %cl,%ah
    4fc5:	80 f9 08             	cmp    $0x8,%cl
    4fc8:	73 11                	jae    4fdb <disable_8>

00004fca <disable_0>:
    4fca:	e4 21                	in     $0x21,%al
    4fcc:	84 e0                	test   %ah,%al
    4fce:	75 1c                	jne    4fec <dis_already>
    4fd0:	08 e0                	or     %ah,%al
    4fd2:	e6 21                	out    %al,$0x21
    4fd4:	9d                   	popf   
    4fd5:	b8 01 00 00 00       	mov    $0x1,%eax
    4fda:	c3                   	ret    

00004fdb <disable_8>:
    4fdb:	e4 a1                	in     $0xa1,%al
    4fdd:	84 e0                	test   %ah,%al
    4fdf:	75 0b                	jne    4fec <dis_already>
    4fe1:	08 e0                	or     %ah,%al
    4fe3:	e6 a1                	out    %al,$0xa1
    4fe5:	9d                   	popf   
    4fe6:	b8 01 00 00 00       	mov    $0x1,%eax
    4feb:	c3                   	ret    

00004fec <dis_already>:
    4fec:	9d                   	popf   
    4fed:	31 c0                	xor    %eax,%eax
    4fef:	c3                   	ret    

00004ff0 <enable_irq>:
    4ff0:	8b 4c 24 04          	mov    0x4(%esp),%ecx
    4ff4:	9c                   	pushf  
    4ff5:	fa                   	cli    
    4ff6:	b4 fe                	mov    $0xfe,%ah
    4ff8:	d2 c4                	rol    %cl,%ah
    4ffa:	80 f9 08             	cmp    $0x8,%cl
    4ffd:	73 08                	jae    5007 <enable_8>

00004fff <enable_0>:
    4fff:	e4 21                	in     $0x21,%al
    5001:	20 e0                	and    %ah,%al
    5003:	e6 21                	out    %al,$0x21
    5005:	9d                   	popf   
    5006:	c3                   	ret    

00005007 <enable_8>:
    5007:	e4 a1                	in     $0xa1,%al
    5009:	20 e0                	and    %ah,%al
    500b:	e6 a1                	out    %al,$0xa1
    500d:	9d                   	popf   
    500e:	c3                   	ret    

0000500f <disable_int>:
    500f:	fa                   	cli    
    5010:	c3                   	ret    

00005011 <enable_int>:
    5011:	fb                   	sti    
    5012:	c3                   	ret    

00005013 <glitter>:
    5013:	50                   	push   %eax
    5014:	53                   	push   %ebx
    5015:	52                   	push   %edx
    5016:	a1 5a 50 00 00       	mov    0x505a,%eax
    501b:	40                   	inc    %eax
    501c:	3d 42 00 00 00       	cmp    $0x42,%eax
    5021:	74 05                	je     5028 <glitter.1>
    5023:	e9 02 00 00 00       	jmp    502a <glitter.2>

00005028 <glitter.1>:
    5028:	31 c0                	xor    %eax,%eax

0000502a <glitter.2>:
    502a:	a3 5a 50 00 00       	mov    %eax,0x505a
    502f:	8a 90 5e 50 00 00    	mov    0x505e(%eax),%dl
    5035:	31 c0                	xor    %eax,%eax
    5037:	8a 44 24 10          	mov    0x10(%esp),%al
    503b:	b3 50                	mov    $0x50,%bl
    503d:	f6 e3                	mul    %bl
    503f:	66 8b 5c 24 14       	mov    0x14(%esp),%bx
    5044:	66 01 d8             	add    %bx,%ax
    5047:	66 d1 e0             	shl    %ax
    504a:	0f b7 c0             	movzwl %ax,%eax
    504d:	65 88 10             	mov    %dl,%gs:(%eax)
    5050:	40                   	inc    %eax
    5051:	65 c6 00 04          	movb   $0x4,%gs:(%eax)
    5055:	e9 46 00 00 00       	jmp    50a0 <glitter.end>

0000505a <glitter.current_char>:
    505a:	00 00                	add    %al,(%eax)
	...

0000505e <glitter.glitter_str>:
    505e:	2d 5c 7c 2f 31       	sub    $0x312f7c5c,%eax
    5063:	32 33                	xor    (%ebx),%dh
    5065:	34 35                	xor    $0x35,%al
    5067:	36                   	ss
    5068:	37                   	aaa    
    5069:	38 39                	cmp    %bh,(%ecx)
    506b:	30 61 62             	xor    %ah,0x62(%ecx)
    506e:	63 64 65 66          	arpl   %sp,0x66(%ebp,%eiz,2)
    5072:	67 68 69 6a 6b 6c    	addr16 push $0x6c6b6a69
    5078:	6d                   	insl   (%dx),%es:(%edi)
    5079:	6e                   	outsb  %ds:(%esi),(%dx)
    507a:	6f                   	outsl  %ds:(%esi),(%dx)
    507b:	70 71                	jo     50ee <out_word+0x1e>
    507d:	72 73                	jb     50f2 <in_long>
    507f:	74 75                	je     50f6 <in_long+0x4>
    5081:	76 77                	jbe    50fa <in_long+0x8>
    5083:	78 79                	js     50fe <in_long+0xc>
    5085:	7a 41                	jp     50c8 <in_word+0x24>
    5087:	42                   	inc    %edx
    5088:	43                   	inc    %ebx
    5089:	44                   	inc    %esp
    508a:	45                   	inc    %ebp
    508b:	46                   	inc    %esi
    508c:	47                   	inc    %edi
    508d:	48                   	dec    %eax
    508e:	49                   	dec    %ecx
    508f:	4a                   	dec    %edx
    5090:	4b                   	dec    %ebx
    5091:	4c                   	dec    %esp
    5092:	4d                   	dec    %ebp
    5093:	4e                   	dec    %esi
    5094:	4f                   	dec    %edi
    5095:	50                   	push   %eax
    5096:	51                   	push   %ecx
    5097:	52                   	push   %edx
    5098:	53                   	push   %ebx
    5099:	54                   	push   %esp
    509a:	55                   	push   %ebp
    509b:	56                   	push   %esi
    509c:	57                   	push   %edi
    509d:	58                   	pop    %eax
    509e:	59                   	pop    %ecx
    509f:	5a                   	pop    %edx

000050a0 <glitter.end>:
    50a0:	5a                   	pop    %edx
    50a1:	5b                   	pop    %ebx
    50a2:	58                   	pop    %eax
    50a3:	c3                   	ret    

000050a4 <in_word>:
    50a4:	55                   	push   %ebp
    50a5:	89 e5                	mov    %esp,%ebp
    50a7:	53                   	push   %ebx
    50a8:	83 ec 18             	sub    $0x18,%esp
    50ab:	8b 45 08             	mov    0x8(%ebp),%eax
    50ae:	66 89 45 e8          	mov    %ax,-0x18(%ebp)
    50b2:	0f b7 45 e8          	movzwl -0x18(%ebp),%eax
    50b6:	66 89 45 e6          	mov    %ax,-0x1a(%ebp)
    50ba:	0f b7 55 e6          	movzwl -0x1a(%ebp),%edx
    50be:	66 ed                	in     (%dx),%ax
    50c0:	89 c3                	mov    %eax,%ebx
    50c2:	66 89 5d fa          	mov    %bx,-0x6(%ebp)
    50c6:	0f b7 45 fa          	movzwl -0x6(%ebp),%eax
    50ca:	83 c4 18             	add    $0x18,%esp
    50cd:	5b                   	pop    %ebx
    50ce:	5d                   	pop    %ebp
    50cf:	c3                   	ret    

000050d0 <out_word>:
    50d0:	55                   	push   %ebp
    50d1:	89 e5                	mov    %esp,%ebp
    50d3:	83 ec 18             	sub    $0x18,%esp
    50d6:	8b 55 08             	mov    0x8(%ebp),%edx
    50d9:	8b 45 0c             	mov    0xc(%ebp),%eax
    50dc:	66 89 55 ec          	mov    %dx,-0x14(%ebp)
    50e0:	66 89 45 e8          	mov    %ax,-0x18(%ebp)
    50e4:	0f b7 45 ec          	movzwl -0x14(%ebp),%eax
    50e8:	89 c2                	mov    %eax,%edx
    50ea:	66 ef                	out    %ax,(%dx)
    50ec:	66 89 45 fe          	mov    %ax,-0x2(%ebp)
    50f0:	c9                   	leave  
    50f1:	c3                   	ret    

000050f2 <in_long>:
    50f2:	55                   	push   %ebp
    50f3:	89 e5                	mov    %esp,%ebp
    50f5:	53                   	push   %ebx
    50f6:	83 ec 18             	sub    $0x18,%esp
    50f9:	8b 45 08             	mov    0x8(%ebp),%eax
    50fc:	66 89 45 e8          	mov    %ax,-0x18(%ebp)
    5100:	0f b7 45 e8          	movzwl -0x18(%ebp),%eax
    5104:	66 89 45 e6          	mov    %ax,-0x1a(%ebp)
    5108:	0f b7 55 e6          	movzwl -0x1a(%ebp),%edx
    510c:	ed                   	in     (%dx),%eax
    510d:	89 c3                	mov    %eax,%ebx
    510f:	89 5d f8             	mov    %ebx,-0x8(%ebp)
    5112:	8b 45 f8             	mov    -0x8(%ebp),%eax
    5115:	83 c4 18             	add    $0x18,%esp
    5118:	5b                   	pop    %ebx
    5119:	5d                   	pop    %ebp
    511a:	c3                   	ret    

0000511b <out_long>:
    511b:	55                   	push   %ebp
    511c:	89 e5                	mov    %esp,%ebp
    511e:	83 ec 14             	sub    $0x14,%esp
    5121:	8b 45 08             	mov    0x8(%ebp),%eax
    5124:	66 89 45 ec          	mov    %ax,-0x14(%ebp)
    5128:	0f b7 45 ec          	movzwl -0x14(%ebp),%eax
    512c:	89 c2                	mov    %eax,%edx
    512e:	ef                   	out    %eax,(%dx)
    512f:	89 45 fc             	mov    %eax,-0x4(%ebp)
    5132:	c9                   	leave  
    5133:	c3                   	ret    

00005134 <get_boot_params>:
    5134:	55                   	push   %ebp
    5135:	89 e5                	mov    %esp,%ebp
    5137:	83 ec 28             	sub    $0x28,%esp
    513a:	c7 45 f4 00 09 00 00 	movl   $0x900,-0xc(%ebp)
    5141:	8b 45 f4             	mov    -0xc(%ebp),%eax
    5144:	8b 00                	mov    (%eax),%eax
    5146:	3d 07 b0 00 00       	cmp    $0xb007,%eax
    514b:	74 24                	je     5171 <get_boot_params+0x3d>
    514d:	c7 44 24 0c 4b 00 00 	movl   $0x4b,0xc(%esp)
    5154:	00 
    5155:	c7 44 24 08 ec 11 01 	movl   $0x111ec,0x8(%esp)
    515c:	00 
    515d:	c7 44 24 04 ec 11 01 	movl   $0x111ec,0x4(%esp)
    5164:	00 
    5165:	c7 04 24 f3 11 01 00 	movl   $0x111f3,(%esp)
    516c:	e8 59 b2 00 00       	call   103ca <assertion_failure>
    5171:	8b 45 f4             	mov    -0xc(%ebp),%eax
    5174:	83 c0 04             	add    $0x4,%eax
    5177:	8b 10                	mov    (%eax),%edx
    5179:	8b 45 08             	mov    0x8(%ebp),%eax
    517c:	89 10                	mov    %edx,(%eax)
    517e:	8b 45 f4             	mov    -0xc(%ebp),%eax
    5181:	83 c0 08             	add    $0x8,%eax
    5184:	8b 00                	mov    (%eax),%eax
    5186:	89 c2                	mov    %eax,%edx
    5188:	8b 45 08             	mov    0x8(%ebp),%eax
    518b:	89 50 04             	mov    %edx,0x4(%eax)
    518e:	8b 45 08             	mov    0x8(%ebp),%eax
    5191:	8b 40 04             	mov    0x4(%eax),%eax
    5194:	c7 44 24 08 04 00 00 	movl   $0x4,0x8(%esp)
    519b:	00 
    519c:	c7 44 24 04 11 12 01 	movl   $0x11211,0x4(%esp)
    51a3:	00 
    51a4:	89 04 24             	mov    %eax,(%esp)
    51a7:	e8 b3 b0 00 00       	call   1025f <memcmp>
    51ac:	85 c0                	test   %eax,%eax
    51ae:	74 24                	je     51d4 <get_boot_params+0xa0>
    51b0:	c7 44 24 0c 54 00 00 	movl   $0x54,0xc(%esp)
    51b7:	00 
    51b8:	c7 44 24 08 ec 11 01 	movl   $0x111ec,0x8(%esp)
    51bf:	00 
    51c0:	c7 44 24 04 ec 11 01 	movl   $0x111ec,0x4(%esp)
    51c7:	00 
    51c8:	c7 04 24 18 12 01 00 	movl   $0x11218,(%esp)
    51cf:	e8 f6 b1 00 00       	call   103ca <assertion_failure>
    51d4:	c9                   	leave  
    51d5:	c3                   	ret    

000051d6 <get_kernel_map>:
    51d6:	55                   	push   %ebp
    51d7:	89 e5                	mov    %esp,%ebp
    51d9:	83 ec 38             	sub    $0x38,%esp
    51dc:	8d 45 d8             	lea    -0x28(%ebp),%eax
    51df:	89 04 24             	mov    %eax,(%esp)
    51e2:	e8 4d ff ff ff       	call   5134 <get_boot_params>
    51e7:	8b 45 dc             	mov    -0x24(%ebp),%eax
    51ea:	89 45 ec             	mov    %eax,-0x14(%ebp)
    51ed:	8b 45 ec             	mov    -0x14(%ebp),%eax
    51f0:	c7 44 24 08 04 00 00 	movl   $0x4,0x8(%esp)
    51f7:	00 
    51f8:	c7 44 24 04 11 12 01 	movl   $0x11211,0x4(%esp)
    51ff:	00 
    5200:	89 04 24             	mov    %eax,(%esp)
    5203:	e8 57 b0 00 00       	call   1025f <memcmp>
    5208:	85 c0                	test   %eax,%eax
    520a:	74 0a                	je     5216 <get_kernel_map+0x40>
    520c:	b8 ff ff ff ff       	mov    $0xffffffff,%eax
    5211:	e9 df 00 00 00       	jmp    52f5 <get_kernel_map+0x11f>
    5216:	8b 45 08             	mov    0x8(%ebp),%eax
    5219:	c7 00 ff ff ff ff    	movl   $0xffffffff,(%eax)
    521f:	c7 45 f4 00 00 00 00 	movl   $0x0,-0xc(%ebp)
    5226:	c7 45 f0 00 00 00 00 	movl   $0x0,-0x10(%ebp)
    522d:	eb 6e                	jmp    529d <get_kernel_map+0xc7>
    522f:	8b 55 dc             	mov    -0x24(%ebp),%edx
    5232:	8b 45 ec             	mov    -0x14(%ebp),%eax
    5235:	8b 48 20             	mov    0x20(%eax),%ecx
    5238:	8b 45 ec             	mov    -0x14(%ebp),%eax
    523b:	0f b7 40 2e          	movzwl 0x2e(%eax),%eax
    523f:	0f b7 c0             	movzwl %ax,%eax
    5242:	0f af 45 f0          	imul   -0x10(%ebp),%eax
    5246:	8d 04 01             	lea    (%ecx,%eax,1),%eax
    5249:	8d 04 02             	lea    (%edx,%eax,1),%eax
    524c:	89 45 e8             	mov    %eax,-0x18(%ebp)
    524f:	8b 45 e8             	mov    -0x18(%ebp),%eax
    5252:	8b 40 08             	mov    0x8(%eax),%eax
    5255:	83 e0 02             	and    $0x2,%eax
    5258:	85 c0                	test   %eax,%eax
    525a:	74 3d                	je     5299 <get_kernel_map+0xc3>
    525c:	8b 45 e8             	mov    -0x18(%ebp),%eax
    525f:	8b 40 0c             	mov    0xc(%eax),%eax
    5262:	89 45 e4             	mov    %eax,-0x1c(%ebp)
    5265:	8b 45 e8             	mov    -0x18(%ebp),%eax
    5268:	8b 50 0c             	mov    0xc(%eax),%edx
    526b:	8b 45 e8             	mov    -0x18(%ebp),%eax
    526e:	8b 40 14             	mov    0x14(%eax),%eax
    5271:	8d 04 02             	lea    (%edx,%eax,1),%eax
    5274:	89 45 e0             	mov    %eax,-0x20(%ebp)
    5277:	8b 45 08             	mov    0x8(%ebp),%eax
    527a:	8b 10                	mov    (%eax),%edx
    527c:	8b 45 e4             	mov    -0x1c(%ebp),%eax
    527f:	39 c2                	cmp    %eax,%edx
    5281:	76 08                	jbe    528b <get_kernel_map+0xb5>
    5283:	8b 55 e4             	mov    -0x1c(%ebp),%edx
    5286:	8b 45 08             	mov    0x8(%ebp),%eax
    5289:	89 10                	mov    %edx,(%eax)
    528b:	8b 45 e0             	mov    -0x20(%ebp),%eax
    528e:	3b 45 f4             	cmp    -0xc(%ebp),%eax
    5291:	76 06                	jbe    5299 <get_kernel_map+0xc3>
    5293:	8b 45 e0             	mov    -0x20(%ebp),%eax
    5296:	89 45 f4             	mov    %eax,-0xc(%ebp)
    5299:	83 45 f0 01          	addl   $0x1,-0x10(%ebp)
    529d:	8b 45 ec             	mov    -0x14(%ebp),%eax
    52a0:	0f b7 40 30          	movzwl 0x30(%eax),%eax
    52a4:	0f b7 c0             	movzwl %ax,%eax
    52a7:	3b 45 f0             	cmp    -0x10(%ebp),%eax
    52aa:	7f 83                	jg     522f <get_kernel_map+0x59>
    52ac:	8b 45 08             	mov    0x8(%ebp),%eax
    52af:	8b 00                	mov    (%eax),%eax
    52b1:	3b 45 f4             	cmp    -0xc(%ebp),%eax
    52b4:	72 24                	jb     52da <get_kernel_map+0x104>
    52b6:	c7 44 24 0c 82 00 00 	movl   $0x82,0xc(%esp)
    52bd:	00 
    52be:	c7 44 24 08 ec 11 01 	movl   $0x111ec,0x8(%esp)
    52c5:	00 
    52c6:	c7 44 24 04 ec 11 01 	movl   $0x111ec,0x4(%esp)
    52cd:	00 
    52ce:	c7 04 24 47 12 01 00 	movl   $0x11247,(%esp)
    52d5:	e8 f0 b0 00 00       	call   103ca <assertion_failure>
    52da:	8b 45 08             	mov    0x8(%ebp),%eax
    52dd:	8b 00                	mov    (%eax),%eax
    52df:	8b 55 f4             	mov    -0xc(%ebp),%edx
    52e2:	89 d1                	mov    %edx,%ecx
    52e4:	29 c1                	sub    %eax,%ecx
    52e6:	89 c8                	mov    %ecx,%eax
    52e8:	8d 50 ff             	lea    -0x1(%eax),%edx
    52eb:	8b 45 0c             	mov    0xc(%ebp),%eax
    52ee:	89 10                	mov    %edx,(%eax)
    52f0:	b8 00 00 00 00       	mov    $0x0,%eax
    52f5:	c9                   	leave  
    52f6:	c3                   	ret    

000052f7 <itoa>:
    52f7:	55                   	push   %ebp
    52f8:	89 e5                	mov    %esp,%ebp
    52fa:	53                   	push   %ebx
    52fb:	83 ec 10             	sub    $0x10,%esp
    52fe:	8b 45 08             	mov    0x8(%ebp),%eax
    5301:	89 45 f8             	mov    %eax,-0x8(%ebp)
    5304:	c7 45 ec 00 00 00 00 	movl   $0x0,-0x14(%ebp)
    530b:	8b 45 f8             	mov    -0x8(%ebp),%eax
    530e:	c6 00 30             	movb   $0x30,(%eax)
    5311:	83 45 f8 01          	addl   $0x1,-0x8(%ebp)
    5315:	8b 45 f8             	mov    -0x8(%ebp),%eax
    5318:	c6 00 78             	movb   $0x78,(%eax)
    531b:	83 45 f8 01          	addl   $0x1,-0x8(%ebp)
    531f:	83 7d 0c 00          	cmpl   $0x0,0xc(%ebp)
    5323:	75 0c                	jne    5331 <itoa+0x3a>
    5325:	8b 45 f8             	mov    -0x8(%ebp),%eax
    5328:	c6 00 30             	movb   $0x30,(%eax)
    532b:	83 45 f8 01          	addl   $0x1,-0x8(%ebp)
    532f:	eb 61                	jmp    5392 <itoa+0x9b>
    5331:	c7 45 f0 1c 00 00 00 	movl   $0x1c,-0x10(%ebp)
    5338:	eb 52                	jmp    538c <itoa+0x95>
    533a:	8b 45 f0             	mov    -0x10(%ebp),%eax
    533d:	8b 55 0c             	mov    0xc(%ebp),%edx
    5340:	89 d3                	mov    %edx,%ebx
    5342:	89 c1                	mov    %eax,%ecx
    5344:	d3 fb                	sar    %cl,%ebx
    5346:	89 d8                	mov    %ebx,%eax
    5348:	83 e0 0f             	and    $0xf,%eax
    534b:	88 45 f7             	mov    %al,-0x9(%ebp)
    534e:	83 7d ec 00          	cmpl   $0x0,-0x14(%ebp)
    5352:	75 06                	jne    535a <itoa+0x63>
    5354:	80 7d f7 00          	cmpb   $0x0,-0x9(%ebp)
    5358:	7e 2e                	jle    5388 <itoa+0x91>
    535a:	c7 45 ec 01 00 00 00 	movl   $0x1,-0x14(%ebp)
    5361:	0f b6 45 f7          	movzbl -0x9(%ebp),%eax
    5365:	83 c0 30             	add    $0x30,%eax
    5368:	88 45 f7             	mov    %al,-0x9(%ebp)
    536b:	80 7d f7 39          	cmpb   $0x39,-0x9(%ebp)
    536f:	7e 0a                	jle    537b <itoa+0x84>
    5371:	0f b6 45 f7          	movzbl -0x9(%ebp),%eax
    5375:	83 c0 07             	add    $0x7,%eax
    5378:	88 45 f7             	mov    %al,-0x9(%ebp)
    537b:	8b 45 f8             	mov    -0x8(%ebp),%eax
    537e:	0f b6 55 f7          	movzbl -0x9(%ebp),%edx
    5382:	88 10                	mov    %dl,(%eax)
    5384:	83 45 f8 01          	addl   $0x1,-0x8(%ebp)
    5388:	83 6d f0 04          	subl   $0x4,-0x10(%ebp)
    538c:	83 7d f0 00          	cmpl   $0x0,-0x10(%ebp)
    5390:	79 a8                	jns    533a <itoa+0x43>
    5392:	8b 45 f8             	mov    -0x8(%ebp),%eax
    5395:	c6 00 00             	movb   $0x0,(%eax)
    5398:	8b 45 08             	mov    0x8(%ebp),%eax
    539b:	83 c4 10             	add    $0x10,%esp
    539e:	5b                   	pop    %ebx
    539f:	5d                   	pop    %ebp
    53a0:	c3                   	ret    

000053a1 <disp_int>:
    53a1:	55                   	push   %ebp
    53a2:	89 e5                	mov    %esp,%ebp
    53a4:	83 ec 28             	sub    $0x28,%esp
    53a7:	8b 45 08             	mov    0x8(%ebp),%eax
    53aa:	89 44 24 04          	mov    %eax,0x4(%esp)
    53ae:	8d 45 e8             	lea    -0x18(%ebp),%eax
    53b1:	89 04 24             	mov    %eax,(%esp)
    53b4:	e8 3e ff ff ff       	call   52f7 <itoa>
    53b9:	8d 45 e8             	lea    -0x18(%ebp),%eax
    53bc:	89 04 24             	mov    %eax,(%esp)
    53bf:	e8 2c fb ff ff       	call   4ef0 <disp_str>
    53c4:	c9                   	leave  
    53c5:	c3                   	ret    

000053c6 <printk>:
    53c6:	55                   	push   %ebp
    53c7:	89 e5                	mov    %esp,%ebp
    53c9:	81 ec 28 04 00 00    	sub    $0x428,%esp
    53cf:	8d 45 08             	lea    0x8(%ebp),%eax
    53d2:	83 c0 04             	add    $0x4,%eax
    53d5:	89 45 f4             	mov    %eax,-0xc(%ebp)
    53d8:	8b 45 08             	mov    0x8(%ebp),%eax
    53db:	8b 55 f4             	mov    -0xc(%ebp),%edx
    53de:	89 54 24 08          	mov    %edx,0x8(%esp)
    53e2:	89 44 24 04          	mov    %eax,0x4(%esp)
    53e6:	8d 85 f0 fb ff ff    	lea    -0x410(%ebp),%eax
    53ec:	89 04 24             	mov    %eax,(%esp)
    53ef:	e8 47 aa 00 00       	call   fe3b <vsprintf>
    53f4:	89 45 f0             	mov    %eax,-0x10(%ebp)
    53f7:	8d 85 f0 fb ff ff    	lea    -0x410(%ebp),%eax
    53fd:	89 04 24             	mov    %eax,(%esp)
    5400:	e8 eb fa ff ff       	call   4ef0 <disp_str>
    5405:	8b 45 f0             	mov    -0x10(%ebp),%eax
    5408:	c9                   	leave  
    5409:	c3                   	ret    

0000540a <delay>:
    540a:	55                   	push   %ebp
    540b:	89 e5                	mov    %esp,%ebp
    540d:	83 ec 10             	sub    $0x10,%esp
    5410:	c7 45 f4 00 00 00 00 	movl   $0x0,-0xc(%ebp)
    5417:	eb 2d                	jmp    5446 <delay+0x3c>
    5419:	c7 45 fc 00 00 00 00 	movl   $0x0,-0x4(%ebp)
    5420:	eb 1a                	jmp    543c <delay+0x32>
    5422:	c7 45 f8 00 00 00 00 	movl   $0x0,-0x8(%ebp)
    5429:	eb 04                	jmp    542f <delay+0x25>
    542b:	83 45 f8 01          	addl   $0x1,-0x8(%ebp)
    542f:	81 7d f8 0f 27 00 00 	cmpl   $0x270f,-0x8(%ebp)
    5436:	7e f3                	jle    542b <delay+0x21>
    5438:	83 45 fc 01          	addl   $0x1,-0x4(%ebp)
    543c:	83 7d fc 09          	cmpl   $0x9,-0x4(%ebp)
    5440:	7e e0                	jle    5422 <delay+0x18>
    5442:	83 45 f4 01          	addl   $0x1,-0xc(%ebp)
    5446:	8b 45 f4             	mov    -0xc(%ebp),%eax
    5449:	3b 45 08             	cmp    0x8(%ebp),%eax
    544c:	7c cb                	jl     5419 <delay+0xf>
    544e:	c9                   	leave  
    544f:	c3                   	ret    

00005450 <sys_reboot>:
    5450:	55                   	push   %ebp
    5451:	89 e5                	mov    %esp,%ebp
    5453:	83 ec 08             	sub    $0x8,%esp
    5456:	e8 19 01 00 00       	call   5574 <hard_reboot>
    545b:	b8 00 00 00 00       	mov    $0x0,%eax
    5460:	c9                   	leave  
    5461:	c3                   	ret    

00005462 <do_ftime>:
    5462:	55                   	push   %ebp
    5463:	89 e5                	mov    %esp,%ebp
    5465:	b8 da ff ff ff       	mov    $0xffffffda,%eax
    546a:	5d                   	pop    %ebp
    546b:	c3                   	ret    

0000546c <do_mknod>:
    546c:	55                   	push   %ebp
    546d:	89 e5                	mov    %esp,%ebp
    546f:	b8 da ff ff ff       	mov    $0xffffffda,%eax
    5474:	5d                   	pop    %ebp
    5475:	c3                   	ret    

00005476 <do_break>:
    5476:	55                   	push   %ebp
    5477:	89 e5                	mov    %esp,%ebp
    5479:	b8 da ff ff ff       	mov    $0xffffffda,%eax
    547e:	5d                   	pop    %ebp
    547f:	c3                   	ret    

00005480 <do_ustat>:
    5480:	55                   	push   %ebp
    5481:	89 e5                	mov    %esp,%ebp
    5483:	b8 da ff ff ff       	mov    $0xffffffda,%eax
    5488:	5d                   	pop    %ebp
    5489:	c3                   	ret    

0000548a <do_ptrace>:
    548a:	55                   	push   %ebp
    548b:	89 e5                	mov    %esp,%ebp
    548d:	b8 da ff ff ff       	mov    $0xffffffda,%eax
    5492:	5d                   	pop    %ebp
    5493:	c3                   	ret    

00005494 <do_stty>:
    5494:	55                   	push   %ebp
    5495:	89 e5                	mov    %esp,%ebp
    5497:	b8 da ff ff ff       	mov    $0xffffffda,%eax
    549c:	5d                   	pop    %ebp
    549d:	c3                   	ret    

0000549e <do_gtty>:
    549e:	55                   	push   %ebp
    549f:	89 e5                	mov    %esp,%ebp
    54a1:	b8 da ff ff ff       	mov    $0xffffffda,%eax
    54a6:	5d                   	pop    %ebp
    54a7:	c3                   	ret    

000054a8 <do_rename>:
    54a8:	55                   	push   %ebp
    54a9:	89 e5                	mov    %esp,%ebp
    54ab:	b8 da ff ff ff       	mov    $0xffffffda,%eax
    54b0:	5d                   	pop    %ebp
    54b1:	c3                   	ret    

000054b2 <do_prof>:
    54b2:	55                   	push   %ebp
    54b3:	89 e5                	mov    %esp,%ebp
    54b5:	b8 da ff ff ff       	mov    $0xffffffda,%eax
    54ba:	5d                   	pop    %ebp
    54bb:	c3                   	ret    

000054bc <do_acct>:
    54bc:	55                   	push   %ebp
    54bd:	89 e5                	mov    %esp,%ebp
    54bf:	b8 da ff ff ff       	mov    $0xffffffda,%eax
    54c4:	5d                   	pop    %ebp
    54c5:	c3                   	ret    

000054c6 <do_phys>:
    54c6:	55                   	push   %ebp
    54c7:	89 e5                	mov    %esp,%ebp
    54c9:	b8 da ff ff ff       	mov    $0xffffffda,%eax
    54ce:	5d                   	pop    %ebp
    54cf:	c3                   	ret    

000054d0 <do_lock>:
    54d0:	55                   	push   %ebp
    54d1:	89 e5                	mov    %esp,%ebp
    54d3:	b8 da ff ff ff       	mov    $0xffffffda,%eax
    54d8:	5d                   	pop    %ebp
    54d9:	c3                   	ret    

000054da <do_mpx>:
    54da:	55                   	push   %ebp
    54db:	89 e5                	mov    %esp,%ebp
    54dd:	b8 da ff ff ff       	mov    $0xffffffda,%eax
    54e2:	5d                   	pop    %ebp
    54e3:	c3                   	ret    

000054e4 <do_ulimit>:
    54e4:	55                   	push   %ebp
    54e5:	89 e5                	mov    %esp,%ebp
    54e7:	b8 da ff ff ff       	mov    $0xffffffda,%eax
    54ec:	5d                   	pop    %ebp
    54ed:	c3                   	ret    

000054ee <do_stime>:
    54ee:	55                   	push   %ebp
    54ef:	89 e5                	mov    %esp,%ebp
    54f1:	b8 da ff ff ff       	mov    $0xffffffda,%eax
    54f6:	5d                   	pop    %ebp
    54f7:	c3                   	ret    

000054f8 <do_times>:
    54f8:	55                   	push   %ebp
    54f9:	89 e5                	mov    %esp,%ebp
    54fb:	b8 da ff ff ff       	mov    $0xffffffda,%eax
    5500:	5d                   	pop    %ebp
    5501:	c3                   	ret    

00005502 <do_brk>:
    5502:	55                   	push   %ebp
    5503:	89 e5                	mov    %esp,%ebp
    5505:	b8 da ff ff ff       	mov    $0xffffffda,%eax
    550a:	5d                   	pop    %ebp
    550b:	c3                   	ret    

0000550c <do_setpgid>:
    550c:	55                   	push   %ebp
    550d:	89 e5                	mov    %esp,%ebp
    550f:	b8 da ff ff ff       	mov    $0xffffffda,%eax
    5514:	5d                   	pop    %ebp
    5515:	c3                   	ret    

00005516 <do_getpgrp>:
    5516:	55                   	push   %ebp
    5517:	89 e5                	mov    %esp,%ebp
    5519:	b8 da ff ff ff       	mov    $0xffffffda,%eax
    551e:	5d                   	pop    %ebp
    551f:	c3                   	ret    

00005520 <do_setsid>:
    5520:	55                   	push   %ebp
    5521:	89 e5                	mov    %esp,%ebp
    5523:	b8 da ff ff ff       	mov    $0xffffffda,%eax
    5528:	5d                   	pop    %ebp
    5529:	c3                   	ret    

0000552a <do_uname>:
    552a:	55                   	push   %ebp
    552b:	89 e5                	mov    %esp,%ebp
    552d:	83 ec 18             	sub    $0x18,%esp
    5530:	8b 45 0c             	mov    0xc(%ebp),%eax
    5533:	89 44 24 04          	mov    %eax,0x4(%esp)
    5537:	8b 45 08             	mov    0x8(%ebp),%eax
    553a:	89 04 24             	mov    %eax,(%esp)
    553d:	e8 93 df ff ff       	call   34d5 <va2la>
    5542:	c7 44 24 08 2d 00 00 	movl   $0x2d,0x8(%esp)
    5549:	00 
    554a:	c7 44 24 04 a0 32 01 	movl   $0x132a0,0x4(%esp)
    5551:	00 
    5552:	89 04 24             	mov    %eax,(%esp)
    5555:	e8 96 ab 00 00       	call   100f0 <memcpy>
    555a:	b8 00 00 00 00       	mov    $0x0,%eax
    555f:	c9                   	leave  
    5560:	c3                   	ret    

00005561 <do_umask>:
    5561:	55                   	push   %ebp
    5562:	89 e5                	mov    %esp,%ebp
    5564:	b8 da ff ff ff       	mov    $0xffffffda,%eax
    5569:	5d                   	pop    %ebp
    556a:	c3                   	ret    
    556b:	90                   	nop
    556c:	90                   	nop
    556d:	90                   	nop
    556e:	90                   	nop
    556f:	90                   	nop

00005570 <no_idt>:
    5570:	00 00                	add    %al,(%eax)
	...

00005574 <hard_reboot>:
    5574:	fb                   	sti    
    5575:	bb 64 00 00 00       	mov    $0x64,%ebx
    557a:	b0 fe                	mov    $0xfe,%al
    557c:	e6 64                	out    %al,$0x64
    557e:	90                   	nop
    557f:	90                   	nop

00005580 <task_fs>:
    5580:	55                   	push   %ebp
    5581:	89 e5                	mov    %esp,%ebp
    5583:	53                   	push   %ebx
    5584:	81 ec 24 02 00 00    	sub    $0x224,%esp
    558a:	e8 6d 02 00 00       	call   57fc <init_fs>
    558f:	e8 c8 56 00 00       	call   ac5c <init_buffer>
    5594:	eb 01                	jmp    5597 <task_fs+0x17>
    5596:	90                   	nop
    5597:	c7 44 24 08 20 e8 04 	movl   $0x4e820,0x8(%esp)
    559e:	00 
    559f:	c7 44 24 04 34 00 00 	movl   $0x34,0x4(%esp)
    55a6:	00 
    55a7:	c7 04 24 02 00 00 00 	movl   $0x2,(%esp)
    55ae:	e8 c5 ab 00 00       	call   10178 <send_recv>
    55b3:	a1 24 e8 04 00       	mov    0x4e824,%eax
    55b8:	89 45 f0             	mov    %eax,-0x10(%ebp)
    55bb:	a1 20 e8 04 00       	mov    0x4e820,%eax
    55c0:	89 45 f4             	mov    %eax,-0xc(%ebp)
    55c3:	8b 45 f4             	mov    -0xc(%ebp),%eax
    55c6:	69 c0 36 03 00 00    	imul   $0x336,%eax,%eax
    55cc:	05 c0 0c 05 00       	add    $0x50cc0,%eax
    55d1:	a3 a4 da 04 00       	mov    %eax,0x4daa4
    55d6:	8b 45 f0             	mov    -0x10(%ebp),%eax
    55d9:	83 e8 0f             	sub    $0xf,%eax
    55dc:	83 f8 1d             	cmp    $0x1d,%eax
    55df:	0f 87 c7 00 00 00    	ja     56ac <task_fs+0x12c>
    55e5:	8b 04 85 c0 12 01 00 	mov    0x112c0(,%eax,4),%eax
    55ec:	ff e0                	jmp    *%eax
    55ee:	e8 3d 14 00 00       	call   6a30 <do_open>
    55f3:	a3 28 e8 04 00       	mov    %eax,0x4e828
    55f8:	e9 e8 00 00 00       	jmp    56e5 <task_fs+0x165>
    55fd:	e8 b4 1a 00 00       	call   70b6 <do_close>
    5602:	a3 28 e8 04 00       	mov    %eax,0x4e828
    5607:	e9 d9 00 00 00       	jmp    56e5 <task_fs+0x165>
    560c:	e8 67 24 00 00       	call   7a78 <do_rdwt>
    5611:	a3 2c e8 04 00       	mov    %eax,0x4e82c
    5616:	e9 ca 00 00 00       	jmp    56e5 <task_fs+0x165>
    561b:	e8 ac 29 00 00       	call   7fcc <do_unlink>
    5620:	a3 28 e8 04 00       	mov    %eax,0x4e828
    5625:	e9 bb 00 00 00       	jmp    56e5 <task_fs+0x165>
    562a:	e8 45 22 00 00       	call   7874 <do_mount>
    562f:	a3 28 e8 04 00       	mov    %eax,0x4e828
    5634:	e9 ac 00 00 00       	jmp    56e5 <task_fs+0x165>
    5639:	e8 40 22 00 00       	call   787e <do_umount>
    563e:	a3 28 e8 04 00       	mov    %eax,0x4e828
    5643:	e9 9d 00 00 00       	jmp    56e5 <task_fs+0x165>
    5648:	e8 e2 19 00 00       	call   702f <do_mkdir>
    564d:	a3 28 e8 04 00       	mov    %eax,0x4e828
    5652:	e9 8e 00 00 00       	jmp    56e5 <task_fs+0x165>
    5657:	a1 30 e8 04 00       	mov    0x4e830,%eax
    565c:	89 45 f4             	mov    %eax,-0xc(%ebp)
    565f:	e9 81 00 00 00       	jmp    56e5 <task_fs+0x165>
    5664:	e8 97 12 00 00       	call   6900 <fs_fork>
    5669:	a3 28 e8 04 00       	mov    %eax,0x4e828
    566e:	eb 75                	jmp    56e5 <task_fs+0x165>
    5670:	e8 07 13 00 00       	call   697c <fs_exit>
    5675:	a3 28 e8 04 00       	mov    %eax,0x4e828
    567a:	eb 69                	jmp    56e5 <task_fs+0x165>
    567c:	e8 b8 1a 00 00       	call   7139 <do_lseek>
    5681:	a3 2c e8 04 00       	mov    %eax,0x4e82c
    5686:	eb 5d                	jmp    56e5 <task_fs+0x165>
    5688:	e8 fb 21 00 00       	call   7888 <do_stat>
    568d:	a3 28 e8 04 00       	mov    %eax,0x4e828
    5692:	eb 51                	jmp    56e5 <task_fs+0x165>
    5694:	e8 de 1b 00 00       	call   7277 <do_chroot>
    5699:	a3 28 e8 04 00       	mov    %eax,0x4e828
    569e:	eb 45                	jmp    56e5 <task_fs+0x165>
    56a0:	e8 4e 1b 00 00       	call   71f3 <do_chdir>
    56a5:	a3 28 e8 04 00       	mov    %eax,0x4e828
    56aa:	eb 39                	jmp    56e5 <task_fs+0x165>
    56ac:	c7 44 24 04 20 e8 04 	movl   $0x4e820,0x4(%esp)
    56b3:	00 
    56b4:	c7 04 24 50 12 01 00 	movl   $0x11250,(%esp)
    56bb:	e8 c7 f3 ff ff       	call   4a87 <dump_msg>
    56c0:	c7 44 24 0c 66 00 00 	movl   $0x66,0xc(%esp)
    56c7:	00 
    56c8:	c7 44 24 08 65 12 01 	movl   $0x11265,0x8(%esp)
    56cf:	00 
    56d0:	c7 44 24 04 65 12 01 	movl   $0x11265,0x4(%esp)
    56d7:	00 
